; Listing generated by Microsoft (R) Optimizing Compiler Version 16.00.30319.01 

include listing.inc

INCLUDELIB OLDNAMES

PUBLIC	deflate_copyright
EXTRN	match_init:PROC
EXTRN	longest_match:PROC
?my_version@?1??deflateInit2_@@9@9 DB '1.2.7', 00H	; `deflateInit2_'::`2'::my_version
deflate_copyright DB ' deflate 1.2.7 Copyright 1995-2012 Jean-loup Gailly'
	DB	' and Mark Adler ', 00H
	ORG $+12
configuration_table DW 00H
	DW	00H
	DW	00H
	DW	00H
	DQ	FLAT:deflate_stored
	DW	04H
	DW	04H
	DW	08H
	DW	04H
	DQ	FLAT:deflate_fast
	DW	04H
	DW	05H
	DW	010H
	DW	08H
	DQ	FLAT:deflate_fast
	DW	04H
	DW	06H
	DW	020H
	DW	020H
	DQ	FLAT:deflate_fast
	DW	04H
	DW	04H
	DW	010H
	DW	010H
	DQ	FLAT:deflate_slow
	DW	08H
	DW	010H
	DW	020H
	DW	020H
	DQ	FLAT:deflate_slow
	DW	08H
	DW	010H
	DW	080H
	DW	080H
	DQ	FLAT:deflate_slow
	DW	08H
	DW	020H
	DW	080H
	DW	0100H
	DQ	FLAT:deflate_slow
	DW	020H
	DW	080H
	DW	0102H
	DW	0400H
	DQ	FLAT:deflate_slow
	DW	020H
	DW	0102H
	DW	0102H
	DW	01000H
	DQ	FLAT:deflate_slow
;	COMDAT pdata
; File c:\users\darrin\downloads\zlib127\zlib-1.2.7\deflate.c
pdata	SEGMENT
$pdata$lm_init DD imagerel lm_init
	DD	imagerel lm_init+184
	DD	imagerel $unwind$lm_init
pdata	ENDS
;	COMDAT xdata
xdata	SEGMENT
$unwind$lm_init DD 040a01H
	DD	06340aH
	DD	07006320aH
; Function compile flags: /Ogtpy
xdata	ENDS
;	COMDAT lm_init
_TEXT	SEGMENT
s$ = 48
lm_init	PROC						; COMDAT

; 1106 : {

  00000	48 89 5c 24 08	 mov	 QWORD PTR [rsp+8], rbx
  00005	57		 push	 rdi
  00006	48 83 ec 20	 sub	 rsp, 32			; 00000020H

; 1107 :     s->window_size = (ulg)2L*s->w_size;

  0000a	8b 41 44	 mov	 eax, DWORD PTR [rcx+68]

; 1108 : 
; 1109 :     CLEAR_HASH(s);

  0000d	8b 51 74	 mov	 edx, DWORD PTR [rcx+116]
  00010	48 8b d9	 mov	 rbx, rcx
  00013	03 c0		 add	 eax, eax
  00015	ff ca		 dec	 edx
  00017	33 ff		 xor	 edi, edi
  00019	89 41 58	 mov	 DWORD PTR [rcx+88], eax
  0001c	48 8b 41 68	 mov	 rax, QWORD PTR [rcx+104]
  00020	66 89 3c 50	 mov	 WORD PTR [rax+rdx*2], di
  00024	44 8b 41 74	 mov	 r8d, DWORD PTR [rcx+116]
  00028	48 8b 49 68	 mov	 rcx, QWORD PTR [rcx+104]
  0002c	41 ff c8	 dec	 r8d
  0002f	33 d2		 xor	 edx, edx
  00031	4d 03 c0	 add	 r8, r8
  00034	e8 00 00 00 00	 call	 memset

; 1110 : 
; 1111 :     /* Set the default configuration parameters:
; 1112 :      */
; 1113 :     s->max_lazy_match   = configuration_table[s->level].max_lazy;

  00039	4c 63 9b ac 00
	00 00		 movsxd	 r11, DWORD PTR [rbx+172]
  00040	48 8d 0d 00 00
	00 00		 lea	 rcx, OFFSET FLAT:configuration_table
  00047	4d 03 db	 add	 r11, r11
  0004a	42 0f b7 44 d9
	02		 movzx	 eax, WORD PTR [rcx+r11*8+2]
  00050	89 83 a8 00 00
	00		 mov	 DWORD PTR [rbx+168], eax

; 1114 :     s->good_match       = configuration_table[s->level].good_length;

  00056	42 0f b7 04 d9	 movzx	 eax, WORD PTR [rcx+r11*8]
  0005b	89 83 b4 00 00
	00		 mov	 DWORD PTR [rbx+180], eax

; 1115 :     s->nice_match       = configuration_table[s->level].nice_length;

  00061	42 0f b7 44 d9
	04		 movzx	 eax, WORD PTR [rcx+r11*8+4]
  00067	89 83 b8 00 00
	00		 mov	 DWORD PTR [rbx+184], eax

; 1116 :     s->max_chain_length = configuration_table[s->level].max_chain;

  0006d	42 0f b7 44 d9
	06		 movzx	 eax, WORD PTR [rcx+r11*8+6]

; 1117 : 
; 1118 :     s->strstart = 0;
; 1119 :     s->block_start = 0L;

  00073	89 bb 84 00 00
	00		 mov	 DWORD PTR [rbx+132], edi

; 1120 :     s->lookahead = 0;

  00079	89 bb 9c 00 00
	00		 mov	 DWORD PTR [rbx+156], edi

; 1121 :     s->insert = 0;

  0007f	89 bb 0c 17 00
	00		 mov	 DWORD PTR [rbx+5900], edi

; 1122 :     s->match_length = s->prev_length = MIN_MATCH-1;

  00085	c7 83 a0 00 00
	00 02 00 00 00	 mov	 DWORD PTR [rbx+160], 2
  0008f	89 83 a4 00 00
	00		 mov	 DWORD PTR [rbx+164], eax
  00095	c7 83 88 00 00
	00 02 00 00 00	 mov	 DWORD PTR [rbx+136], 2
  0009f	48 89 bb 90 00
	00 00		 mov	 QWORD PTR [rbx+144], rdi

; 1123 :     s->match_available = 0;
; 1124 :     s->ins_h = 0;

  000a6	89 7b 70	 mov	 DWORD PTR [rbx+112], edi

; 1125 : #ifndef FASTEST
; 1126 : #ifdef ASMV
; 1127 :     match_init(); /* initialize the asm code */
; 1128 : #endif
; 1129 : #endif
; 1130 : }

  000a9	48 8b 5c 24 30	 mov	 rbx, QWORD PTR [rsp+48]
  000ae	48 83 c4 20	 add	 rsp, 32			; 00000020H
  000b2	5f		 pop	 rdi
  000b3	e9 00 00 00 00	 jmp	 match_init
lm_init	ENDP
_TEXT	ENDS
PUBLIC	deflateEnd
;	COMDAT pdata
pdata	SEGMENT
$pdata$deflateEnd DD imagerel $LN11
	DD	imagerel $LN11+31
	DD	imagerel $unwind$deflateEnd
pdata	ENDS
;	COMDAT pdata
pdata	SEGMENT
$pdata$0$deflateEnd DD imagerel $LN11+31
	DD	imagerel $LN11+93
	DD	imagerel $chain$0$deflateEnd
pdata	ENDS
;	COMDAT pdata
pdata	SEGMENT
$pdata$2$deflateEnd DD imagerel $LN11+93
	DD	imagerel $LN11+213
	DD	imagerel $chain$2$deflateEnd
pdata	ENDS
;	COMDAT pdata
pdata	SEGMENT
$pdata$3$deflateEnd DD imagerel $LN11+213
	DD	imagerel $LN11+224
	DD	imagerel $chain$3$deflateEnd
pdata	ENDS
;	COMDAT xdata
xdata	SEGMENT
$chain$3$deflateEnd DD 021H
	DD	imagerel $LN11
	DD	imagerel $LN11+31
	DD	imagerel $unwind$deflateEnd
xdata	ENDS
;	COMDAT xdata
xdata	SEGMENT
$chain$2$deflateEnd DD 020021H
	DD	067400H
	DD	imagerel $LN11
	DD	imagerel $LN11+31
	DD	imagerel $unwind$deflateEnd
xdata	ENDS
;	COMDAT xdata
xdata	SEGMENT
$chain$0$deflateEnd DD 020521H
	DD	067405H
	DD	imagerel $LN11
	DD	imagerel $LN11+31
	DD	imagerel $unwind$deflateEnd
xdata	ENDS
;	COMDAT xdata
xdata	SEGMENT
$unwind$deflateEnd DD 020601H
	DD	030023206H
; Function compile flags: /Ogtpy
xdata	ENDS
;	COMDAT deflateEnd
_TEXT	SEGMENT
strm$ = 48
deflateEnd PROC						; COMDAT

; 979  : {

$LN11:
  00000	40 53		 push	 rbx
  00002	48 83 ec 20	 sub	 rsp, 32			; 00000020H
  00006	48 8b d9	 mov	 rbx, rcx

; 980  :     int status;
; 981  : 
; 982  :     if (strm == Z_NULL || strm->state == Z_NULL) return Z_STREAM_ERROR;

  00009	48 85 c9	 test	 rcx, rcx
  0000c	0f 84 c3 00 00
	00		 je	 $LN6@deflateEnd
  00012	48 8b 41 28	 mov	 rax, QWORD PTR [rcx+40]
  00016	48 85 c0	 test	 rax, rax
  00019	0f 84 b6 00 00
	00		 je	 $LN6@deflateEnd

; 983  : 
; 984  :     status = strm->state->status;

  0001f	48 89 7c 24 30	 mov	 QWORD PTR [rsp+48], rdi
  00024	8b 78 08	 mov	 edi, DWORD PTR [rax+8]

; 985  :     if (status != INIT_STATE &&
; 986  :         status != EXTRA_STATE &&
; 987  :         status != NAME_STATE &&
; 988  :         status != COMMENT_STATE &&
; 989  :         status != HCRC_STATE &&
; 990  :         status != BUSY_STATE &&
; 991  :         status != FINISH_STATE) {

  00027	83 ff 2a	 cmp	 edi, 42			; 0000002aH
  0002a	74 31		 je	 SHORT $LN5@deflateEnd
  0002c	83 ff 45	 cmp	 edi, 69			; 00000045H
  0002f	74 2c		 je	 SHORT $LN5@deflateEnd
  00031	83 ff 49	 cmp	 edi, 73			; 00000049H
  00034	74 27		 je	 SHORT $LN5@deflateEnd
  00036	83 ff 5b	 cmp	 edi, 91			; 0000005bH
  00039	74 22		 je	 SHORT $LN5@deflateEnd
  0003b	83 ff 67	 cmp	 edi, 103		; 00000067H
  0003e	74 1d		 je	 SHORT $LN5@deflateEnd
  00040	83 ff 71	 cmp	 edi, 113		; 00000071H
  00043	74 18		 je	 SHORT $LN5@deflateEnd
  00045	81 ff 9a 02 00
	00		 cmp	 edi, 666		; 0000029aH
  0004b	74 10		 je	 SHORT $LN5@deflateEnd

; 992  :       return Z_STREAM_ERROR;

  0004d	b8 fe ff ff ff	 mov	 eax, -2
  00052	48 8b 7c 24 30	 mov	 rdi, QWORD PTR [rsp+48]

; 1005 : }

  00057	48 83 c4 20	 add	 rsp, 32			; 00000020H
  0005b	5b		 pop	 rbx
  0005c	c3		 ret	 0
$LN5@deflateEnd:

; 993  :     }
; 994  : 
; 995  :     /* Deallocate in reverse order of allocations: */
; 996  :     TRY_FREE(strm, strm->state->pending_buf);

  0005d	48 8b 50 10	 mov	 rdx, QWORD PTR [rax+16]
  00061	48 85 d2	 test	 rdx, rdx
  00064	74 07		 je	 SHORT $LN4@deflateEnd
  00066	48 8b 49 40	 mov	 rcx, QWORD PTR [rcx+64]
  0006a	ff 53 38	 call	 QWORD PTR [rbx+56]
$LN4@deflateEnd:

; 997  :     TRY_FREE(strm, strm->state->head);

  0006d	48 8b 43 28	 mov	 rax, QWORD PTR [rbx+40]
  00071	48 8b 50 68	 mov	 rdx, QWORD PTR [rax+104]
  00075	48 85 d2	 test	 rdx, rdx
  00078	74 07		 je	 SHORT $LN3@deflateEnd
  0007a	48 8b 4b 40	 mov	 rcx, QWORD PTR [rbx+64]
  0007e	ff 53 38	 call	 QWORD PTR [rbx+56]
$LN3@deflateEnd:

; 998  :     TRY_FREE(strm, strm->state->prev);

  00081	48 8b 43 28	 mov	 rax, QWORD PTR [rbx+40]
  00085	48 8b 50 60	 mov	 rdx, QWORD PTR [rax+96]
  00089	48 85 d2	 test	 rdx, rdx
  0008c	74 07		 je	 SHORT $LN2@deflateEnd
  0008e	48 8b 4b 40	 mov	 rcx, QWORD PTR [rbx+64]
  00092	ff 53 38	 call	 QWORD PTR [rbx+56]
$LN2@deflateEnd:

; 999  :     TRY_FREE(strm, strm->state->window);

  00095	48 8b 43 28	 mov	 rax, QWORD PTR [rbx+40]
  00099	48 8b 50 50	 mov	 rdx, QWORD PTR [rax+80]
  0009d	48 85 d2	 test	 rdx, rdx
  000a0	74 07		 je	 SHORT $LN1@deflateEnd
  000a2	48 8b 4b 40	 mov	 rcx, QWORD PTR [rbx+64]
  000a6	ff 53 38	 call	 QWORD PTR [rbx+56]
$LN1@deflateEnd:

; 1000 : 
; 1001 :     ZFREE(strm, strm->state);

  000a9	48 8b 53 28	 mov	 rdx, QWORD PTR [rbx+40]
  000ad	48 8b 4b 40	 mov	 rcx, QWORD PTR [rbx+64]
  000b1	ff 53 38	 call	 QWORD PTR [rbx+56]

; 1002 :     strm->state = Z_NULL;

  000b4	45 33 db	 xor	 r11d, r11d

; 1003 : 
; 1004 :     return status == BUSY_STATE ? Z_DATA_ERROR : Z_OK;

  000b7	83 ff 71	 cmp	 edi, 113		; 00000071H
  000ba	48 8b 7c 24 30	 mov	 rdi, QWORD PTR [rsp+48]
  000bf	b8 fd ff ff ff	 mov	 eax, -3
  000c4	4c 89 5b 28	 mov	 QWORD PTR [rbx+40], r11
  000c8	44 0f 44 d8	 cmove	 r11d, eax
  000cc	41 8b c3	 mov	 eax, r11d

; 1005 : }

  000cf	48 83 c4 20	 add	 rsp, 32			; 00000020H
  000d3	5b		 pop	 rbx
  000d4	c3		 ret	 0
$LN6@deflateEnd:

; 980  :     int status;
; 981  : 
; 982  :     if (strm == Z_NULL || strm->state == Z_NULL) return Z_STREAM_ERROR;

  000d5	b8 fe ff ff ff	 mov	 eax, -2

; 1005 : }

  000da	48 83 c4 20	 add	 rsp, 32			; 00000020H
  000de	5b		 pop	 rbx
  000df	c3		 ret	 0
deflateEnd ENDP
_TEXT	ENDS
;	COMDAT pdata
pdata	SEGMENT
$pdata$flush_pending DD imagerel flush_pending
	DD	imagerel flush_pending+56
	DD	imagerel $unwind$flush_pending
pdata	ENDS
;	COMDAT pdata
pdata	SEGMENT
$pdata$0$flush_pending DD imagerel flush_pending+56
	DD	imagerel flush_pending+92
	DD	imagerel $chain$0$flush_pending
pdata	ENDS
;	COMDAT pdata
pdata	SEGMENT
$pdata$1$flush_pending DD imagerel flush_pending+92
	DD	imagerel flush_pending+116
	DD	imagerel $chain$1$flush_pending
pdata	ENDS
;	COMDAT xdata
xdata	SEGMENT
$chain$1$flush_pending DD 021H
	DD	imagerel flush_pending
	DD	imagerel flush_pending+56
	DD	imagerel $unwind$flush_pending
xdata	ENDS
;	COMDAT xdata
xdata	SEGMENT
$chain$0$flush_pending DD 020521H
	DD	063405H
	DD	imagerel flush_pending
	DD	imagerel flush_pending+56
	DD	imagerel $unwind$flush_pending
xdata	ENDS
;	COMDAT xdata
xdata	SEGMENT
$unwind$flush_pending DD 060f01H
	DD	08640fH
	DD	07540fH
	DD	0700b320fH
; Function compile flags: /Ogtpy
xdata	ENDS
;	COMDAT flush_pending
_TEXT	SEGMENT
strm$ = 48
flush_pending PROC					; COMDAT

; 642  : {

  00000	48 89 6c 24 10	 mov	 QWORD PTR [rsp+16], rbp
  00005	48 89 74 24 18	 mov	 QWORD PTR [rsp+24], rsi
  0000a	57		 push	 rdi
  0000b	48 83 ec 20	 sub	 rsp, 32			; 00000020H

; 643  :     unsigned len;
; 644  :     deflate_state *s = strm->state;

  0000f	48 8b 79 28	 mov	 rdi, QWORD PTR [rcx+40]
  00013	48 8b e9	 mov	 rbp, rcx

; 645  : 
; 646  :     _tr_flush_bits(s);

  00016	48 8b cf	 mov	 rcx, rdi
  00019	e8 00 00 00 00	 call	 _tr_flush_bits

; 647  :     len = s->pending;

  0001e	8b 77 28	 mov	 esi, DWORD PTR [rdi+40]

; 648  :     if (len > strm->avail_out) len = strm->avail_out;

  00021	8b 45 18	 mov	 eax, DWORD PTR [rbp+24]
  00024	3b f0		 cmp	 esi, eax
  00026	0f 47 f0	 cmova	 esi, eax

; 649  :     if (len == 0) return;

  00029	85 f6		 test	 esi, esi
  0002b	74 37		 je	 SHORT $LN1@flush_pend

; 650  : 
; 651  :     zmemcpy(strm->next_out, s->pending_out, len);

  0002d	48 8b 57 20	 mov	 rdx, QWORD PTR [rdi+32]
  00031	48 8b 4d 10	 mov	 rcx, QWORD PTR [rbp+16]
  00035	44 8b c6	 mov	 r8d, esi
  00038	48 89 5c 24 30	 mov	 QWORD PTR [rsp+48], rbx
  0003d	8b de		 mov	 ebx, esi
  0003f	e8 00 00 00 00	 call	 memcpy

; 652  :     strm->next_out  += len;

  00044	48 01 5d 10	 add	 QWORD PTR [rbp+16], rbx

; 653  :     s->pending_out  += len;

  00048	48 01 5f 20	 add	 QWORD PTR [rdi+32], rbx

; 654  :     strm->total_out += len;

  0004c	01 75 1c	 add	 DWORD PTR [rbp+28], esi

; 655  :     strm->avail_out  -= len;

  0004f	29 75 18	 sub	 DWORD PTR [rbp+24], esi

; 656  :     s->pending -= len;

  00052	29 77 28	 sub	 DWORD PTR [rdi+40], esi
  00055	48 8b 5c 24 30	 mov	 rbx, QWORD PTR [rsp+48]

; 657  :     if (s->pending == 0) {

  0005a	75 08		 jne	 SHORT $LN1@flush_pend

; 658  :         s->pending_out = s->pending_buf;

  0005c	48 8b 47 10	 mov	 rax, QWORD PTR [rdi+16]
  00060	48 89 47 20	 mov	 QWORD PTR [rdi+32], rax
$LN1@flush_pend:

; 659  :     }
; 660  : }

  00064	48 8b 6c 24 38	 mov	 rbp, QWORD PTR [rsp+56]
  00069	48 8b 74 24 40	 mov	 rsi, QWORD PTR [rsp+64]
  0006e	48 83 c4 20	 add	 rsp, 32			; 00000020H
  00072	5f		 pop	 rdi
  00073	c3		 ret	 0
flush_pending ENDP
; Function compile flags: /Ogtpy
_TEXT	ENDS
;	COMDAT putShortMSB
_TEXT	SEGMENT
s$ = 8
b$ = 16
putShortMSB PROC					; COMDAT

; 630  :     put_byte(s, (Byte)(b >> 8));

  00000	44 8b 41 28	 mov	 r8d, DWORD PTR [rcx+40]
  00004	48 8b 41 10	 mov	 rax, QWORD PTR [rcx+16]
  00008	44 8b ca	 mov	 r9d, edx
  0000b	41 c1 e9 08	 shr	 r9d, 8
  0000f	45 88 0c 00	 mov	 BYTE PTR [r8+rax], r9b
  00013	ff 41 28	 inc	 DWORD PTR [rcx+40]
  00016	44 8b 41 28	 mov	 r8d, DWORD PTR [rcx+40]

; 631  :     put_byte(s, (Byte)(b & 0xff));

  0001a	48 8b 41 10	 mov	 rax, QWORD PTR [rcx+16]
  0001e	41 88 14 00	 mov	 BYTE PTR [r8+rax], dl
  00022	ff 41 28	 inc	 DWORD PTR [rcx+40]

; 632  : }

  00025	c3		 ret	 0
putShortMSB ENDP
_TEXT	ENDS
PUBLIC	deflateBound
; Function compile flags: /Ogtpy
;	COMDAT deflateBound
_TEXT	SEGMENT
strm$ = 8
sourceLen$ = 16
deflateBound PROC					; COMDAT

; 568  :     deflate_state *s;
; 569  :     uLong complen, wraplen;
; 570  :     Bytef *str;
; 571  : 
; 572  :     /* conservative upper bound for compressed data */
; 573  :     complen = sourceLen +
; 574  :               ((sourceLen + 7) >> 3) + ((sourceLen + 63) >> 6) + 5;

  00000	8d 42 3f	 lea	 eax, DWORD PTR [rdx+63]
  00003	44 8d 42 07	 lea	 r8d, DWORD PTR [rdx+7]
  00007	44 8b da	 mov	 r11d, edx
  0000a	c1 e8 06	 shr	 eax, 6
  0000d	41 c1 e8 03	 shr	 r8d, 3
  00011	03 c2		 add	 eax, edx
  00013	45 8d 54 00 05	 lea	 r10d, DWORD PTR [r8+rax+5]

; 575  : 
; 576  :     /* if can't get parameters, return conservative bound plus zlib wrapper */
; 577  :     if (strm == Z_NULL || strm->state == Z_NULL)

  00018	48 85 c9	 test	 rcx, rcx
  0001b	0f 84 e3 00 00
	00		 je	 $LN20@deflateBou
  00021	4c 8b 49 28	 mov	 r9, QWORD PTR [rcx+40]
  00025	4d 85 c9	 test	 r9, r9
  00028	0f 84 d6 00 00
	00		 je	 $LN20@deflateBou

; 579  : 
; 580  :     /* compute wrapper length */
; 581  :     s = strm->state;
; 582  :     switch (s->wrap) {

  0002e	41 8b 49 2c	 mov	 ecx, DWORD PTR [r9+44]
  00032	85 c9		 test	 ecx, ecx
  00034	0f 84 95 00 00
	00		 je	 $LN17@deflateBou
  0003a	ff c9		 dec	 ecx
  0003c	74 7b		 je	 SHORT $LN16@deflateBou
  0003e	ff c9		 dec	 ecx
  00040	74 0b		 je	 SHORT $LN15@deflateBou

; 608  :     default:                                /* for compiler happiness */
; 609  :         wraplen = 6;

  00042	41 b8 06 00 00
	00		 mov	 r8d, 6
  00048	e9 85 00 00 00	 jmp	 $LN18@deflateBou
$LN15@deflateBou:

; 589  :     case 2:                                 /* gzip wrapper */
; 590  :         wraplen = 18;
; 591  :         if (s->gzhead != Z_NULL) {          /* user-supplied gzip header */

  0004d	49 8b 51 30	 mov	 rdx, QWORD PTR [r9+48]
  00051	41 b8 12 00 00
	00		 mov	 r8d, 18
  00057	48 85 d2	 test	 rdx, rdx
  0005a	74 76		 je	 SHORT $LN18@deflateBou

; 592  :             if (s->gzhead->extra != Z_NULL)

  0005c	48 83 7a 10 00	 cmp	 QWORD PTR [rdx+16], 0
  00061	74 08		 je	 SHORT $LN13@deflateBou

; 593  :                 wraplen += 2 + s->gzhead->extra_len;

  00063	44 8b 42 18	 mov	 r8d, DWORD PTR [rdx+24]
  00067	41 83 c0 14	 add	 r8d, 20
$LN13@deflateBou:

; 594  :             str = s->gzhead->name;

  0006b	48 8b 4a 20	 mov	 rcx, QWORD PTR [rdx+32]

; 595  :             if (str != Z_NULL)

  0006f	48 85 c9	 test	 rcx, rcx
  00072	74 19		 je	 SHORT $LN9@deflateBou
  00074	66 66 66 66 0f
	1f 84 00 00 00
	00 00		 npad	 12
$LL11@deflateBou:

; 596  :                 do {
; 597  :                     wraplen++;
; 598  :                 } while (*str++);

  00080	0f b6 01	 movzx	 eax, BYTE PTR [rcx]
  00083	41 ff c0	 inc	 r8d
  00086	48 ff c1	 inc	 rcx
  00089	84 c0		 test	 al, al
  0008b	75 f3		 jne	 SHORT $LL11@deflateBou
$LN9@deflateBou:

; 599  :             str = s->gzhead->comment;

  0008d	48 8b 4a 30	 mov	 rcx, QWORD PTR [rdx+48]

; 600  :             if (str != Z_NULL)

  00091	48 85 c9	 test	 rcx, rcx
  00094	74 17		 je	 SHORT $LN5@deflateBou
  00096	66 66 0f 1f 84
	00 00 00 00 00	 npad	 10
$LL7@deflateBou:

; 601  :                 do {
; 602  :                     wraplen++;
; 603  :                 } while (*str++);

  000a0	0f b6 01	 movzx	 eax, BYTE PTR [rcx]
  000a3	41 ff c0	 inc	 r8d
  000a6	48 ff c1	 inc	 rcx
  000a9	84 c0		 test	 al, al
  000ab	75 f3		 jne	 SHORT $LL7@deflateBou
$LN5@deflateBou:

; 604  :             if (s->gzhead->hcrc)

  000ad	83 7a 3c 00	 cmp	 DWORD PTR [rdx+60], 0
  000b1	74 1f		 je	 SHORT $LN18@deflateBou

; 605  :                 wraplen += 2;

  000b3	41 83 c0 02	 add	 r8d, 2

; 606  :         }
; 607  :         break;

  000b7	eb 19		 jmp	 SHORT $LN18@deflateBou
$LN16@deflateBou:

; 585  :         break;
; 586  :     case 1:                                 /* zlib wrapper */
; 587  :         wraplen = 6 + (s->strstart ? 4 : 0);

  000b9	41 8b 81 94 00
	00 00		 mov	 eax, DWORD PTR [r9+148]
  000c0	f7 d8		 neg	 eax
  000c2	45 1b c0	 sbb	 r8d, r8d
  000c5	41 83 e0 04	 and	 r8d, 4
  000c9	41 83 c0 06	 add	 r8d, 6

; 588  :         break;

  000cd	eb 03		 jmp	 SHORT $LN18@deflateBou
$LN17@deflateBou:

; 583  :     case 0:                                 /* raw deflate */
; 584  :         wraplen = 0;

  000cf	45 33 c0	 xor	 r8d, r8d
$LN18@deflateBou:

; 610  :     }
; 611  : 
; 612  :     /* if not default parameters, return conservative bound */
; 613  :     if (s->w_bits != 15 || s->hash_bits != 8 + 7)

  000d2	41 83 79 48 0f	 cmp	 DWORD PTR [r9+72], 15
  000d7	75 26		 jne	 SHORT $LN1@deflateBou
  000d9	41 83 79 78 0f	 cmp	 DWORD PTR [r9+120], 15
  000de	75 1f		 jne	 SHORT $LN1@deflateBou

; 615  : 
; 616  :     /* default settings: return tight bound for that case */
; 617  :     return sourceLen + (sourceLen >> 12) + (sourceLen >> 14) +
; 618  :            (sourceLen >> 25) + 13 - 6 + wraplen;

  000e0	41 8b d3	 mov	 edx, r11d
  000e3	41 8b cb	 mov	 ecx, r11d
  000e6	41 8b c3	 mov	 eax, r11d
  000e9	c1 ea 0e	 shr	 edx, 14
  000ec	c1 e9 19	 shr	 ecx, 25
  000ef	c1 e8 0c	 shr	 eax, 12
  000f2	41 03 d0	 add	 edx, r8d
  000f5	03 d1		 add	 edx, ecx
  000f7	03 c2		 add	 eax, edx
  000f9	42 8d 44 18 07	 lea	 eax, DWORD PTR [rax+r11+7]

; 619  : }

  000fe	c3		 ret	 0
$LN1@deflateBou:

; 614  :         return complen + wraplen;

  000ff	43 8d 04 10	 lea	 eax, DWORD PTR [r8+r10]

; 619  : }

  00103	c3		 ret	 0
$LN20@deflateBou:

; 578  :         return complen + 6;

  00104	41 8d 42 06	 lea	 eax, DWORD PTR [r10+6]

; 619  : }

  00108	c3		 ret	 0
deflateBound ENDP
_TEXT	ENDS
PUBLIC	deflateTune
; Function compile flags: /Ogtpy
;	COMDAT deflateTune
_TEXT	SEGMENT
strm$ = 8
good_length$ = 16
max_lazy$ = 24
nice_length$ = 32
max_chain$ = 40
deflateTune PROC					; COMDAT

; 536  :     deflate_state *s;
; 537  : 
; 538  :     if (strm == Z_NULL || strm->state == Z_NULL) return Z_STREAM_ERROR;

  00000	48 85 c9	 test	 rcx, rcx
  00003	74 2a		 je	 SHORT $LN1@deflateTun
  00005	48 8b 49 28	 mov	 rcx, QWORD PTR [rcx+40]
  00009	48 85 c9	 test	 rcx, rcx
  0000c	74 21		 je	 SHORT $LN1@deflateTun

; 539  :     s = strm->state;
; 540  :     s->good_match = good_length;
; 541  :     s->max_lazy_match = max_lazy;
; 542  :     s->nice_match = nice_length;
; 543  :     s->max_chain_length = max_chain;

  0000e	8b 44 24 28	 mov	 eax, DWORD PTR max_chain$[rsp]
  00012	89 91 b4 00 00
	00		 mov	 DWORD PTR [rcx+180], edx
  00018	44 89 81 a8 00
	00 00		 mov	 DWORD PTR [rcx+168], r8d
  0001f	89 81 a4 00 00
	00		 mov	 DWORD PTR [rcx+164], eax

; 544  :     return Z_OK;

  00025	33 c0		 xor	 eax, eax
  00027	44 89 89 b8 00
	00 00		 mov	 DWORD PTR [rcx+184], r9d

; 545  : }

  0002e	c3		 ret	 0
$LN1@deflateTun:

; 536  :     deflate_state *s;
; 537  : 
; 538  :     if (strm == Z_NULL || strm->state == Z_NULL) return Z_STREAM_ERROR;

  0002f	b8 fe ff ff ff	 mov	 eax, -2

; 545  : }

  00034	c3		 ret	 0
deflateTune ENDP
_TEXT	ENDS
PUBLIC	deflatePrime
;	COMDAT pdata
pdata	SEGMENT
$pdata$deflatePrime DD imagerel $LN12
	DD	imagerel $LN12+191
	DD	imagerel $unwind$deflatePrime
pdata	ENDS
;	COMDAT xdata
xdata	SEGMENT
$unwind$deflatePrime DD 040a01H
	DD	06340aH
	DD	07006320aH
; Function compile flags: /Ogtpy
xdata	ENDS
;	COMDAT deflatePrime
_TEXT	SEGMENT
strm$ = 48
bits$ = 56
value$ = 64
deflatePrime PROC					; COMDAT

; 468  : {

$LN12:
  00000	48 89 5c 24 08	 mov	 QWORD PTR [rsp+8], rbx
  00005	57		 push	 rdi
  00006	48 83 ec 20	 sub	 rsp, 32			; 00000020H
  0000a	41 8b f8	 mov	 edi, r8d
  0000d	8b da		 mov	 ebx, edx

; 469  :     deflate_state *s;
; 470  :     int put;
; 471  : 
; 472  :     if (strm == Z_NULL || strm->state == Z_NULL) return Z_STREAM_ERROR;

  0000f	48 85 c9	 test	 rcx, rcx
  00012	0f 84 97 00 00
	00		 je	 $LN6@deflatePri
  00018	4c 8b 59 28	 mov	 r11, QWORD PTR [rcx+40]
  0001c	4d 85 db	 test	 r11, r11
  0001f	0f 84 8a 00 00
	00		 je	 $LN6@deflatePri

; 473  :     s = strm->state;
; 474  :     if ((Bytef *)(s->d_buf) < s->pending_out + ((Buf_size + 7) >> 3))

  00025	49 8b 43 20	 mov	 rax, QWORD PTR [r11+32]
  00029	48 83 c0 02	 add	 rax, 2
  0002d	49 39 83 f8 16
	00 00		 cmp	 QWORD PTR [r11+5880], rax
  00034	73 1a		 jae	 SHORT $LL4@deflatePri

; 475  :         return Z_BUF_ERROR;

  00036	b8 fb ff ff ff	 mov	 eax, -5

; 487  : }

  0003b	48 8b 5c 24 30	 mov	 rbx, QWORD PTR [rsp+48]
  00040	48 83 c4 20	 add	 rsp, 32			; 00000020H
  00044	5f		 pop	 rdi
  00045	c3		 ret	 0
  00046	66 66 0f 1f 84
	00 00 00 00 00	 npad	 10
$LL4@deflatePri:

; 476  :     do {
; 477  :         put = Buf_size - s->bi_valid;

  00050	41 8b 93 14 17
	00 00		 mov	 edx, DWORD PTR [r11+5908]

; 478  :         if (put > bits)
; 479  :             put = bits;
; 480  :         s->bi_buf |= (ush)((value & ((1 << put) - 1)) << s->bi_valid);

  00057	b8 01 00 00 00	 mov	 eax, 1
  0005c	41 ba 10 00 00
	00		 mov	 r10d, 16
  00062	44 2b d2	 sub	 r10d, edx
  00065	44 3b d3	 cmp	 r10d, ebx
  00068	44 0f 4f d3	 cmovg	 r10d, ebx
  0006c	41 8b ca	 mov	 ecx, r10d
  0006f	66 d3 e0	 shl	 ax, cl
  00072	8b ca		 mov	 ecx, edx
  00074	66 ff c8	 dec	 ax
  00077	66 23 c7	 and	 ax, di
  0007a	66 d3 e0	 shl	 ax, cl

; 481  :         s->bi_valid += put;
; 482  :         _tr_flush_bits(s);

  0007d	49 8b cb	 mov	 rcx, r11
  00080	66 41 09 83 10
	17 00 00	 or	 WORD PTR [r11+5904], ax
  00088	42 8d 04 12	 lea	 eax, DWORD PTR [rdx+r10]
  0008c	41 89 83 14 17
	00 00		 mov	 DWORD PTR [r11+5908], eax
  00093	e8 00 00 00 00	 call	 _tr_flush_bits

; 483  :         value >>= put;

  00098	41 8b ca	 mov	 ecx, r10d
  0009b	d3 ff		 sar	 edi, cl

; 484  :         bits -= put;

  0009d	41 2b da	 sub	 ebx, r10d

; 485  :     } while (bits);

  000a0	75 ae		 jne	 SHORT $LL4@deflatePri

; 486  :     return Z_OK;

  000a2	33 c0		 xor	 eax, eax

; 487  : }

  000a4	48 8b 5c 24 30	 mov	 rbx, QWORD PTR [rsp+48]
  000a9	48 83 c4 20	 add	 rsp, 32			; 00000020H
  000ad	5f		 pop	 rdi
  000ae	c3		 ret	 0
$LN6@deflatePri:

; 469  :     deflate_state *s;
; 470  :     int put;
; 471  : 
; 472  :     if (strm == Z_NULL || strm->state == Z_NULL) return Z_STREAM_ERROR;

  000af	b8 fe ff ff ff	 mov	 eax, -2

; 487  : }

  000b4	48 8b 5c 24 30	 mov	 rbx, QWORD PTR [rsp+48]
  000b9	48 83 c4 20	 add	 rsp, 32			; 00000020H
  000bd	5f		 pop	 rdi
  000be	c3		 ret	 0
deflatePrime ENDP
_TEXT	ENDS
PUBLIC	deflatePending
; Function compile flags: /Ogtpy
;	COMDAT deflatePending
_TEXT	SEGMENT
strm$ = 8
pending$ = 16
bits$ = 24
deflatePending PROC					; COMDAT

; 455  :     if (strm == Z_NULL || strm->state == Z_NULL) return Z_STREAM_ERROR;

  00000	48 85 c9	 test	 rcx, rcx
  00003	74 28		 je	 SHORT $LN3@deflatePen
  00005	48 8b 41 28	 mov	 rax, QWORD PTR [rcx+40]
  00009	48 85 c0	 test	 rax, rax
  0000c	74 1f		 je	 SHORT $LN3@deflatePen

; 456  :     if (pending != Z_NULL)

  0000e	48 85 d2	 test	 rdx, rdx
  00011	74 05		 je	 SHORT $LN2@deflatePen

; 457  :         *pending = strm->state->pending;

  00013	8b 40 28	 mov	 eax, DWORD PTR [rax+40]
  00016	89 02		 mov	 DWORD PTR [rdx], eax
$LN2@deflatePen:

; 458  :     if (bits != Z_NULL)

  00018	4d 85 c0	 test	 r8, r8
  0001b	74 0d		 je	 SHORT $LN1@deflatePen

; 459  :         *bits = strm->state->bi_valid;

  0001d	48 8b 41 28	 mov	 rax, QWORD PTR [rcx+40]
  00021	8b 88 14 17 00
	00		 mov	 ecx, DWORD PTR [rax+5908]
  00027	41 89 08	 mov	 DWORD PTR [r8], ecx
$LN1@deflatePen:

; 460  :     return Z_OK;

  0002a	33 c0		 xor	 eax, eax

; 461  : }

  0002c	c3		 ret	 0
$LN3@deflatePen:

; 455  :     if (strm == Z_NULL || strm->state == Z_NULL) return Z_STREAM_ERROR;

  0002d	b8 fe ff ff ff	 mov	 eax, -2

; 461  : }

  00032	c3		 ret	 0
deflatePending ENDP
_TEXT	ENDS
PUBLIC	deflateSetHeader
; Function compile flags: /Ogtpy
;	COMDAT deflateSetHeader
_TEXT	SEGMENT
strm$ = 8
head$ = 16
deflateSetHeader PROC					; COMDAT

; 443  :     if (strm == Z_NULL || strm->state == Z_NULL) return Z_STREAM_ERROR;

  00000	48 85 c9	 test	 rcx, rcx
  00003	74 16		 je	 SHORT $LN2@deflateSet
  00005	48 8b 41 28	 mov	 rax, QWORD PTR [rcx+40]
  00009	48 85 c0	 test	 rax, rax
  0000c	74 0d		 je	 SHORT $LN2@deflateSet

; 444  :     if (strm->state->wrap != 2) return Z_STREAM_ERROR;

  0000e	83 78 2c 02	 cmp	 DWORD PTR [rax+44], 2
  00012	75 07		 jne	 SHORT $LN2@deflateSet

; 445  :     strm->state->gzhead = head;

  00014	48 89 50 30	 mov	 QWORD PTR [rax+48], rdx

; 446  :     return Z_OK;

  00018	33 c0		 xor	 eax, eax

; 447  : }

  0001a	c3		 ret	 0
$LN2@deflateSet:

; 443  :     if (strm == Z_NULL || strm->state == Z_NULL) return Z_STREAM_ERROR;

  0001b	b8 fe ff ff ff	 mov	 eax, -2

; 447  : }

  00020	c3		 ret	 0
deflateSetHeader ENDP
;	COMDAT pdata
pdata	SEGMENT
$pdata$read_buf DD imagerel read_buf
	DD	imagerel read_buf+161
	DD	imagerel $unwind$read_buf
pdata	ENDS
;	COMDAT xdata
xdata	SEGMENT
$unwind$read_buf DD 084a01H
	DD	06644aH
	DD	08540fH
	DD	07340fH
	DD	0700b320fH
; Function compile flags: /Ogtpy
xdata	ENDS
;	COMDAT read_buf
_TEXT	SEGMENT
strm$ = 48
buf$ = 56
size$ = 64
read_buf PROC						; COMDAT

; 1078 : {

  00000	48 89 5c 24 10	 mov	 QWORD PTR [rsp+16], rbx
  00005	48 89 6c 24 18	 mov	 QWORD PTR [rsp+24], rbp
  0000a	57		 push	 rdi
  0000b	48 83 ec 20	 sub	 rsp, 32			; 00000020H

; 1079 :     unsigned len = strm->avail_in;

  0000f	8b 41 08	 mov	 eax, DWORD PTR [rcx+8]
  00012	48 8b ea	 mov	 rbp, rdx
  00015	48 8b d9	 mov	 rbx, rcx

; 1080 : 
; 1081 :     if (len > size) len = size;

  00018	41 3b c0	 cmp	 eax, r8d
  0001b	8b f8		 mov	 edi, eax
  0001d	41 0f 47 f8	 cmova	 edi, r8d

; 1082 :     if (len == 0) return 0;

  00021	85 ff		 test	 edi, edi
  00023	75 12		 jne	 SHORT $LN4@read_buf
  00025	33 c0		 xor	 eax, eax

; 1097 : 
; 1098 :     return (int)len;
; 1099 : }

  00027	48 8b 5c 24 38	 mov	 rbx, QWORD PTR [rsp+56]
  0002c	48 8b 6c 24 40	 mov	 rbp, QWORD PTR [rsp+64]
  00031	48 83 c4 20	 add	 rsp, 32			; 00000020H
  00035	5f		 pop	 rdi
  00036	c3		 ret	 0
$LN4@read_buf:

; 1083 : 
; 1084 :     strm->avail_in  -= len;
; 1085 : 
; 1086 :     zmemcpy(buf, strm->next_in, len);

  00037	48 8b 11	 mov	 rdx, QWORD PTR [rcx]
  0003a	2b c7		 sub	 eax, edi
  0003c	44 8b c7	 mov	 r8d, edi
  0003f	89 41 08	 mov	 DWORD PTR [rcx+8], eax
  00042	48 8b cd	 mov	 rcx, rbp
  00045	48 89 74 24 30	 mov	 QWORD PTR [rsp+48], rsi
  0004a	8b f7		 mov	 esi, edi
  0004c	e8 00 00 00 00	 call	 memcpy

; 1087 :     if (strm->state->wrap == 1) {

  00051	4c 8b 5b 28	 mov	 r11, QWORD PTR [rbx+40]
  00055	41 8b 43 2c	 mov	 eax, DWORD PTR [r11+44]
  00059	83 f8 01	 cmp	 eax, 1
  0005c	75 10		 jne	 SHORT $LN3@read_buf

; 1088 :         strm->adler = adler32(strm->adler, buf, len);

  0005e	8b 4b 4c	 mov	 ecx, DWORD PTR [rbx+76]
  00061	44 8b c7	 mov	 r8d, edi
  00064	48 8b d5	 mov	 rdx, rbp
  00067	e8 00 00 00 00	 call	 adler32
  0006c	eb 13		 jmp	 SHORT $LN8@read_buf
$LN3@read_buf:

; 1089 :     }
; 1090 : #ifdef GZIP
; 1091 :     else if (strm->state->wrap == 2) {

  0006e	83 f8 02	 cmp	 eax, 2
  00071	75 11		 jne	 SHORT $LN1@read_buf

; 1092 :         strm->adler = crc32(strm->adler, buf, len);

  00073	8b 4b 4c	 mov	 ecx, DWORD PTR [rbx+76]
  00076	44 8b c7	 mov	 r8d, edi
  00079	48 8b d5	 mov	 rdx, rbp
  0007c	e8 00 00 00 00	 call	 crc32
$LN8@read_buf:
  00081	89 43 4c	 mov	 DWORD PTR [rbx+76], eax
$LN1@read_buf:

; 1093 :     }
; 1094 : #endif
; 1095 :     strm->next_in  += len;

  00084	48 01 33	 add	 QWORD PTR [rbx], rsi

; 1096 :     strm->total_in += len;

  00087	01 7b 0c	 add	 DWORD PTR [rbx+12], edi

; 1097 : 
; 1098 :     return (int)len;
; 1099 : }

  0008a	48 8b 6c 24 40	 mov	 rbp, QWORD PTR [rsp+64]
  0008f	48 8b 5c 24 38	 mov	 rbx, QWORD PTR [rsp+56]
  00094	48 8b 74 24 30	 mov	 rsi, QWORD PTR [rsp+48]
  00099	8b c7		 mov	 eax, edi
  0009b	48 83 c4 20	 add	 rsp, 32			; 00000020H
  0009f	5f		 pop	 rdi
  000a0	c3		 ret	 0
read_buf ENDP
_TEXT	ENDS
PUBLIC	deflateCopy
;	COMDAT pdata
pdata	SEGMENT
$pdata$deflateCopy DD imagerel $LN10
	DD	imagerel $LN10+50
	DD	imagerel $unwind$deflateCopy
pdata	ENDS
;	COMDAT pdata
pdata	SEGMENT
$pdata$0$deflateCopy DD imagerel $LN10+50
	DD	imagerel $LN10+105
	DD	imagerel $chain$0$deflateCopy
pdata	ENDS
;	COMDAT pdata
pdata	SEGMENT
$pdata$3$deflateCopy DD imagerel $LN10+105
	DD	imagerel $LN10+458
	DD	imagerel $chain$3$deflateCopy
pdata	ENDS
;	COMDAT pdata
pdata	SEGMENT
$pdata$5$deflateCopy DD imagerel $LN10+458
	DD	imagerel $LN10+473
	DD	imagerel $chain$5$deflateCopy
pdata	ENDS
;	COMDAT pdata
pdata	SEGMENT
$pdata$6$deflateCopy DD imagerel $LN10+473
	DD	imagerel $LN10+489
	DD	imagerel $chain$6$deflateCopy
pdata	ENDS
;	COMDAT xdata
xdata	SEGMENT
$chain$6$deflateCopy DD 021H
	DD	imagerel $LN10
	DD	imagerel $LN10+50
	DD	imagerel $unwind$deflateCopy
xdata	ENDS
;	COMDAT xdata
xdata	SEGMENT
$chain$5$deflateCopy DD 040021H
	DD	077400H
	DD	065400H
	DD	imagerel $LN10
	DD	imagerel $LN10+50
	DD	imagerel $unwind$deflateCopy
xdata	ENDS
;	COMDAT xdata
xdata	SEGMENT
$chain$3$deflateCopy DD 041121H
	DD	065411H
	DD	077400H
	DD	imagerel $LN10
	DD	imagerel $LN10+50
	DD	imagerel $unwind$deflateCopy
xdata	ENDS
;	COMDAT xdata
xdata	SEGMENT
$chain$0$deflateCopy DD 020521H
	DD	077405H
	DD	imagerel $LN10
	DD	imagerel $LN10+50
	DD	imagerel $unwind$deflateCopy
xdata	ENDS
;	COMDAT xdata
xdata	SEGMENT
$unwind$deflateCopy DD 040a01H
	DD	08340aH
	DD	06006320aH
; Function compile flags: /Ogtpy
xdata	ENDS
;	COMDAT deflateCopy
_TEXT	SEGMENT
dest$ = 48
source$ = 56
deflateCopy PROC					; COMDAT

; 1015 : {

$LN10:
  00000	48 89 5c 24 18	 mov	 QWORD PTR [rsp+24], rbx
  00005	56		 push	 rsi
  00006	48 83 ec 20	 sub	 rsp, 32			; 00000020H
  0000a	48 8b d9	 mov	 rbx, rcx

; 1016 : #ifdef MAXSEG_64K
; 1017 :     return Z_STREAM_ERROR;
; 1018 : #else
; 1019 :     deflate_state *ds;
; 1020 :     deflate_state *ss;
; 1021 :     ushf *overlay;
; 1022 : 
; 1023 : 
; 1024 :     if (source == Z_NULL || dest == Z_NULL || source->state == Z_NULL) {

  0000d	48 85 d2	 test	 rdx, rdx
  00010	0f 84 c3 01 00
	00		 je	 $LN4@deflateCop
  00016	48 85 c9	 test	 rcx, rcx
  00019	0f 84 ba 01 00
	00		 je	 $LN4@deflateCop
  0001f	48 8b 72 28	 mov	 rsi, QWORD PTR [rdx+40]
  00023	48 85 f6	 test	 rsi, rsi
  00026	0f 84 ad 01 00
	00		 je	 $LN4@deflateCop

; 1026 :     }
; 1027 : 
; 1028 :     ss = source->state;
; 1029 : 
; 1030 :     zmemcpy((voidpf)dest, (voidpf)source, sizeof(z_stream));

  0002c	41 b8 58 00 00
	00		 mov	 r8d, 88			; 00000058H
  00032	48 89 7c 24 38	 mov	 QWORD PTR [rsp+56], rdi
  00037	e8 00 00 00 00	 call	 memcpy

; 1031 : 
; 1032 :     ds = (deflate_state *) ZALLOC(dest, 1, sizeof(deflate_state));

  0003c	48 8b 4b 40	 mov	 rcx, QWORD PTR [rbx+64]
  00040	ba 01 00 00 00	 mov	 edx, 1
  00045	41 b8 20 17 00
	00		 mov	 r8d, 5920		; 00001720H
  0004b	ff 53 30	 call	 QWORD PTR [rbx+48]
  0004e	48 8b f8	 mov	 rdi, rax

; 1033 :     if (ds == Z_NULL) return Z_MEM_ERROR;

  00051	48 85 c0	 test	 rax, rax
  00054	75 13		 jne	 SHORT $LN3@deflateCop
  00056	8d 47 fc	 lea	 eax, QWORD PTR [rdi-4]
  00059	48 8b 7c 24 38	 mov	 rdi, QWORD PTR [rsp+56]

; 1064 : #endif /* MAXSEG_64K */
; 1065 : }

  0005e	48 8b 5c 24 40	 mov	 rbx, QWORD PTR [rsp+64]
  00063	48 83 c4 20	 add	 rsp, 32			; 00000020H
  00067	5e		 pop	 rsi
  00068	c3		 ret	 0
$LN3@deflateCop:

; 1034 :     dest->state = (struct internal_state FAR *) ds;
; 1035 :     zmemcpy((voidpf)ds, (voidpf)ss, sizeof(deflate_state));

  00069	41 b8 20 17 00
	00		 mov	 r8d, 5920		; 00001720H
  0006f	48 8b d6	 mov	 rdx, rsi
  00072	48 8b c8	 mov	 rcx, rax
  00075	48 89 6c 24 30	 mov	 QWORD PTR [rsp+48], rbp
  0007a	48 89 43 28	 mov	 QWORD PTR [rbx+40], rax
  0007e	e8 00 00 00 00	 call	 memcpy

; 1036 :     ds->strm = dest;
; 1037 : 
; 1038 :     ds->window = (Bytef *) ZALLOC(dest, ds->w_size, 2*sizeof(Byte));

  00083	8b 57 44	 mov	 edx, DWORD PTR [rdi+68]
  00086	48 89 1f	 mov	 QWORD PTR [rdi], rbx
  00089	48 8b 4b 40	 mov	 rcx, QWORD PTR [rbx+64]
  0008d	41 b8 02 00 00
	00		 mov	 r8d, 2
  00093	ff 53 30	 call	 QWORD PTR [rbx+48]

; 1039 :     ds->prev   = (Posf *)  ZALLOC(dest, ds->w_size, sizeof(Pos));

  00096	8b 57 44	 mov	 edx, DWORD PTR [rdi+68]
  00099	41 b8 02 00 00
	00		 mov	 r8d, 2
  0009f	48 89 47 50	 mov	 QWORD PTR [rdi+80], rax
  000a3	48 8b 4b 40	 mov	 rcx, QWORD PTR [rbx+64]
  000a7	ff 53 30	 call	 QWORD PTR [rbx+48]

; 1040 :     ds->head   = (Posf *)  ZALLOC(dest, ds->hash_size, sizeof(Pos));

  000aa	8b 57 74	 mov	 edx, DWORD PTR [rdi+116]
  000ad	41 b8 02 00 00
	00		 mov	 r8d, 2
  000b3	48 89 47 60	 mov	 QWORD PTR [rdi+96], rax
  000b7	48 8b 4b 40	 mov	 rcx, QWORD PTR [rbx+64]
  000bb	ff 53 30	 call	 QWORD PTR [rbx+48]

; 1041 :     overlay = (ushf *) ZALLOC(dest, ds->lit_bufsize, sizeof(ush)+2);

  000be	8b 97 f0 16 00
	00		 mov	 edx, DWORD PTR [rdi+5872]
  000c4	41 b8 04 00 00
	00		 mov	 r8d, 4
  000ca	48 89 47 68	 mov	 QWORD PTR [rdi+104], rax
  000ce	48 8b 4b 40	 mov	 rcx, QWORD PTR [rbx+64]
  000d2	ff 53 30	 call	 QWORD PTR [rbx+48]

; 1042 :     ds->pending_buf = (uchf *) overlay;
; 1043 : 
; 1044 :     if (ds->window == Z_NULL || ds->prev == Z_NULL || ds->head == Z_NULL ||
; 1045 :         ds->pending_buf == Z_NULL) {

  000d5	48 8b 4f 50	 mov	 rcx, QWORD PTR [rdi+80]
  000d9	48 8b e8	 mov	 rbp, rax
  000dc	48 89 47 10	 mov	 QWORD PTR [rdi+16], rax
  000e0	48 85 c9	 test	 rcx, rcx
  000e3	0f 84 e1 00 00
	00		 je	 $LN1@deflateCop
  000e9	48 83 7f 60 00	 cmp	 QWORD PTR [rdi+96], 0
  000ee	0f 84 d6 00 00
	00		 je	 $LN1@deflateCop
  000f4	48 83 7f 68 00	 cmp	 QWORD PTR [rdi+104], 0
  000f9	0f 84 cb 00 00
	00		 je	 $LN1@deflateCop
  000ff	48 85 c0	 test	 rax, rax
  00102	0f 84 c2 00 00
	00		 je	 $LN1@deflateCop

; 1048 :     }
; 1049 :     /* following zmemcpy do not work for 16-bit MSDOS */
; 1050 :     zmemcpy(ds->window, ss->window, ds->w_size * 2 * sizeof(Byte));

  00108	8b 47 44	 mov	 eax, DWORD PTR [rdi+68]
  0010b	48 8b 56 50	 mov	 rdx, QWORD PTR [rsi+80]
  0010f	44 8d 04 00	 lea	 r8d, DWORD PTR [rax+rax]
  00113	e8 00 00 00 00	 call	 memcpy

; 1051 :     zmemcpy((voidpf)ds->prev, (voidpf)ss->prev, ds->w_size * sizeof(Pos));

  00118	44 8b 47 44	 mov	 r8d, DWORD PTR [rdi+68]
  0011c	48 8b 56 60	 mov	 rdx, QWORD PTR [rsi+96]
  00120	48 8b 4f 60	 mov	 rcx, QWORD PTR [rdi+96]
  00124	4d 03 c0	 add	 r8, r8
  00127	e8 00 00 00 00	 call	 memcpy

; 1052 :     zmemcpy((voidpf)ds->head, (voidpf)ss->head, ds->hash_size * sizeof(Pos));

  0012c	44 8b 47 74	 mov	 r8d, DWORD PTR [rdi+116]
  00130	48 8b 56 68	 mov	 rdx, QWORD PTR [rsi+104]
  00134	48 8b 4f 68	 mov	 rcx, QWORD PTR [rdi+104]
  00138	4d 03 c0	 add	 r8, r8
  0013b	e8 00 00 00 00	 call	 memcpy

; 1053 :     zmemcpy(ds->pending_buf, ss->pending_buf, (uInt)ds->pending_buf_size);

  00140	44 8b 47 18	 mov	 r8d, DWORD PTR [rdi+24]
  00144	48 8b 56 10	 mov	 rdx, QWORD PTR [rsi+16]
  00148	48 8b 4f 10	 mov	 rcx, QWORD PTR [rdi+16]
  0014c	e8 00 00 00 00	 call	 memcpy

; 1054 : 
; 1055 :     ds->pending_out = ds->pending_buf + (ss->pending_out - ss->pending_buf);

  00151	48 8b 46 20	 mov	 rax, QWORD PTR [rsi+32]

; 1056 :     ds->d_buf = overlay + ds->lit_bufsize/sizeof(ush);

  00155	8b 8f f0 16 00
	00		 mov	 ecx, DWORD PTR [rdi+5872]
  0015b	48 2b 46 10	 sub	 rax, QWORD PTR [rsi+16]
  0015f	4c 8b 5f 10	 mov	 r11, QWORD PTR [rdi+16]
  00163	49 03 c3	 add	 rax, r11
  00166	48 89 47 20	 mov	 QWORD PTR [rdi+32], rax
  0016a	8b c1		 mov	 eax, ecx
  0016c	48 d1 e8	 shr	 rax, 1
  0016f	48 8d 44 45 00	 lea	 rax, QWORD PTR [rbp+rax*2]
  00174	48 89 87 f8 16
	00 00		 mov	 QWORD PTR [rdi+5880], rax

; 1057 :     ds->l_buf = ds->pending_buf + (1+sizeof(ush))*ds->lit_bufsize;

  0017b	49 8d 04 4b	 lea	 rax, QWORD PTR [r11+rcx*2]
  0017f	48 03 c8	 add	 rcx, rax

; 1058 : 
; 1059 :     ds->l_desc.dyn_tree = ds->dyn_ltree;

  00182	48 8d 87 bc 00
	00 00		 lea	 rax, QWORD PTR [rdi+188]
  00189	48 89 87 40 0b
	00 00		 mov	 QWORD PTR [rdi+2880], rax

; 1060 :     ds->d_desc.dyn_tree = ds->dyn_dtree;

  00190	48 8d 87 b0 09
	00 00		 lea	 rax, QWORD PTR [rdi+2480]
  00197	48 89 8f e8 16
	00 00		 mov	 QWORD PTR [rdi+5864], rcx
  0019e	48 89 87 58 0b
	00 00		 mov	 QWORD PTR [rdi+2904], rax

; 1061 :     ds->bl_desc.dyn_tree = ds->bl_tree;

  001a5	48 8d 87 a4 0a
	00 00		 lea	 rax, QWORD PTR [rdi+2724]
  001ac	48 89 87 70 0b
	00 00		 mov	 QWORD PTR [rdi+2928], rax

; 1062 : 
; 1063 :     return Z_OK;

  001b3	33 c0		 xor	 eax, eax
$LN9@deflateCop:
  001b5	48 8b 6c 24 30	 mov	 rbp, QWORD PTR [rsp+48]
  001ba	48 8b 7c 24 38	 mov	 rdi, QWORD PTR [rsp+56]

; 1064 : #endif /* MAXSEG_64K */
; 1065 : }

  001bf	48 8b 5c 24 40	 mov	 rbx, QWORD PTR [rsp+64]
  001c4	48 83 c4 20	 add	 rsp, 32			; 00000020H
  001c8	5e		 pop	 rsi
  001c9	c3		 ret	 0
$LN1@deflateCop:

; 1046 :         deflateEnd (dest);

  001ca	48 8b cb	 mov	 rcx, rbx
  001cd	e8 00 00 00 00	 call	 deflateEnd

; 1047 :         return Z_MEM_ERROR;

  001d2	b8 fc ff ff ff	 mov	 eax, -4
  001d7	eb dc		 jmp	 SHORT $LN9@deflateCop
$LN4@deflateCop:

; 1025 :         return Z_STREAM_ERROR;

  001d9	b8 fe ff ff ff	 mov	 eax, -2

; 1064 : #endif /* MAXSEG_64K */
; 1065 : }

  001de	48 8b 5c 24 40	 mov	 rbx, QWORD PTR [rsp+64]
  001e3	48 83 c4 20	 add	 rsp, 32			; 00000020H
  001e7	5e		 pop	 rsi
  001e8	c3		 ret	 0
deflateCopy ENDP
_TEXT	ENDS
PUBLIC	deflateResetKeep
;	COMDAT pdata
pdata	SEGMENT
$pdata$deflateResetKeep DD imagerel $LN8
	DD	imagerel $LN8+60
	DD	imagerel $unwind$deflateResetKeep
pdata	ENDS
;	COMDAT pdata
pdata	SEGMENT
$pdata$0$deflateResetKeep DD imagerel $LN8+60
	DD	imagerel $LN8+179
	DD	imagerel $chain$0$deflateResetKeep
pdata	ENDS
;	COMDAT pdata
pdata	SEGMENT
$pdata$1$deflateResetKeep DD imagerel $LN8+179
	DD	imagerel $LN8+195
	DD	imagerel $chain$1$deflateResetKeep
pdata	ENDS
;	COMDAT xdata
xdata	SEGMENT
$chain$1$deflateResetKeep DD 021H
	DD	imagerel $LN8
	DD	imagerel $LN8+60
	DD	imagerel $unwind$deflateResetKeep
xdata	ENDS
;	COMDAT xdata
xdata	SEGMENT
$chain$0$deflateResetKeep DD 020521H
	DD	066405H
	DD	imagerel $LN8
	DD	imagerel $LN8+60
	DD	imagerel $unwind$deflateResetKeep
xdata	ENDS
;	COMDAT xdata
xdata	SEGMENT
$unwind$deflateResetKeep DD 040a01H
	DD	07340aH
	DD	07006320aH
; Function compile flags: /Ogtpy
xdata	ENDS
;	COMDAT deflateResetKeep
_TEXT	SEGMENT
strm$ = 48
deflateResetKeep PROC					; COMDAT

; 394  : {

$LN8:
  00000	48 89 5c 24 10	 mov	 QWORD PTR [rsp+16], rbx
  00005	57		 push	 rdi
  00006	48 83 ec 20	 sub	 rsp, 32			; 00000020H
  0000a	48 8b d9	 mov	 rbx, rcx

; 395  :     deflate_state *s;
; 396  : 
; 397  :     if (strm == Z_NULL || strm->state == Z_NULL ||
; 398  :         strm->zalloc == (alloc_func)0 || strm->zfree == (free_func)0) {

  0000d	48 85 c9	 test	 rcx, rcx
  00010	0f 84 9d 00 00
	00		 je	 $LN2@deflateRes
  00016	48 8b 79 28	 mov	 rdi, QWORD PTR [rcx+40]
  0001a	48 85 ff	 test	 rdi, rdi
  0001d	0f 84 90 00 00
	00		 je	 $LN2@deflateRes
  00023	48 83 79 30 00	 cmp	 QWORD PTR [rcx+48], 0
  00028	0f 84 85 00 00
	00		 je	 $LN2@deflateRes
  0002e	48 83 79 38 00	 cmp	 QWORD PTR [rcx+56], 0
  00033	74 7e		 je	 SHORT $LN2@deflateRes

; 400  :     }
; 401  : 
; 402  :     strm->total_in = strm->total_out = 0;
; 403  :     strm->msg = Z_NULL; /* use zfree if we ever allocate msg dynamically */
; 404  :     strm->data_type = Z_UNKNOWN;

  00035	c7 41 48 02 00
	00 00		 mov	 DWORD PTR [rcx+72], 2
  0003c	48 89 74 24 30	 mov	 QWORD PTR [rsp+48], rsi
  00041	33 f6		 xor	 esi, esi
  00043	89 71 1c	 mov	 DWORD PTR [rcx+28], esi
  00046	89 71 0c	 mov	 DWORD PTR [rcx+12], esi
  00049	48 89 71 20	 mov	 QWORD PTR [rcx+32], rsi

; 405  : 
; 406  :     s = (deflate_state *)strm->state;
; 407  :     s->pending = 0;
; 408  :     s->pending_out = s->pending_buf;

  0004d	48 8b 47 10	 mov	 rax, QWORD PTR [rdi+16]
  00051	89 77 28	 mov	 DWORD PTR [rdi+40], esi
  00054	48 89 47 20	 mov	 QWORD PTR [rdi+32], rax

; 409  : 
; 410  :     if (s->wrap < 0) {

  00058	8b 47 2c	 mov	 eax, DWORD PTR [rdi+44]
  0005b	85 c0		 test	 eax, eax
  0005d	79 05		 jns	 SHORT $LN1@deflateRes

; 411  :         s->wrap = -s->wrap; /* was made negative by deflate(..., Z_FINISH); */

  0005f	f7 d8		 neg	 eax
  00061	89 47 2c	 mov	 DWORD PTR [rdi+44], eax
$LN1@deflateRes:

; 412  :     }
; 413  :     s->status = s->wrap ? INIT_STATE : BUSY_STATE;

  00064	8b 4f 2c	 mov	 ecx, DWORD PTR [rdi+44]
  00067	ba 2a 00 00 00	 mov	 edx, 42			; 0000002aH
  0006c	b8 71 00 00 00	 mov	 eax, 113		; 00000071H
  00071	85 c9		 test	 ecx, ecx
  00073	0f 45 c2	 cmovne	 eax, edx

; 414  :     strm->adler =
; 415  : #ifdef GZIP
; 416  :         s->wrap == 2 ? crc32(0L, Z_NULL, 0) :
; 417  : #endif
; 418  :         adler32(0L, Z_NULL, 0);

  00076	45 33 c0	 xor	 r8d, r8d
  00079	33 d2		 xor	 edx, edx
  0007b	89 47 08	 mov	 DWORD PTR [rdi+8], eax
  0007e	83 f9 02	 cmp	 ecx, 2
  00081	75 09		 jne	 SHORT $LN6@deflateRes
  00083	33 c9		 xor	 ecx, ecx
  00085	e8 00 00 00 00	 call	 crc32
  0008a	eb 07		 jmp	 SHORT $LN7@deflateRes
$LN6@deflateRes:
  0008c	33 c9		 xor	 ecx, ecx
  0008e	e8 00 00 00 00	 call	 adler32
$LN7@deflateRes:
  00093	89 43 4c	 mov	 DWORD PTR [rbx+76], eax

; 419  :     s->last_flush = Z_NO_FLUSH;
; 420  : 
; 421  :     _tr_init(s);

  00096	48 8b cf	 mov	 rcx, rdi
  00099	89 77 40	 mov	 DWORD PTR [rdi+64], esi
  0009c	e8 00 00 00 00	 call	 _tr_init
  000a1	48 8b 74 24 30	 mov	 rsi, QWORD PTR [rsp+48]

; 422  : 
; 423  :     return Z_OK;

  000a6	33 c0		 xor	 eax, eax

; 424  : }

  000a8	48 8b 5c 24 38	 mov	 rbx, QWORD PTR [rsp+56]
  000ad	48 83 c4 20	 add	 rsp, 32			; 00000020H
  000b1	5f		 pop	 rdi
  000b2	c3		 ret	 0
$LN2@deflateRes:

; 399  :         return Z_STREAM_ERROR;

  000b3	b8 fe ff ff ff	 mov	 eax, -2

; 424  : }

  000b8	48 8b 5c 24 38	 mov	 rbx, QWORD PTR [rsp+56]
  000bd	48 83 c4 20	 add	 rsp, 32			; 00000020H
  000c1	5f		 pop	 rdi
  000c2	c3		 ret	 0
deflateResetKeep ENDP
;	COMDAT pdata
pdata	SEGMENT
$pdata$fill_window DD imagerel fill_window
	DD	imagerel fill_window+21
	DD	imagerel $unwind$fill_window
pdata	ENDS
;	COMDAT pdata
pdata	SEGMENT
$pdata$0$fill_window DD imagerel fill_window+21
	DD	imagerel fill_window+455
	DD	imagerel $chain$0$fill_window
pdata	ENDS
;	COMDAT pdata
pdata	SEGMENT
$pdata$1$fill_window DD imagerel fill_window+455
	DD	imagerel fill_window+588
	DD	imagerel $chain$1$fill_window
pdata	ENDS
;	COMDAT xdata
xdata	SEGMENT
$chain$1$fill_window DD 021H
	DD	imagerel fill_window
	DD	imagerel fill_window+21
	DD	imagerel $unwind$fill_window
xdata	ENDS
;	COMDAT xdata
xdata	SEGMENT
$chain$0$fill_window DD 020521H
	DD	065405H
	DD	imagerel fill_window
	DD	imagerel fill_window+21
	DD	imagerel $unwind$fill_window
xdata	ENDS
;	COMDAT xdata
xdata	SEGMENT
$unwind$fill_window DD 060f01H
	DD	08640fH
	DD	07340fH
	DD	0700b320fH
; Function compile flags: /Ogtpy
xdata	ENDS
;	COMDAT fill_window
_TEXT	SEGMENT
s$ = 48
fill_window PROC					; COMDAT

; 1390 : {

  00000	48 89 5c 24 10	 mov	 QWORD PTR [rsp+16], rbx
  00005	48 89 74 24 18	 mov	 QWORD PTR [rsp+24], rsi
  0000a	57		 push	 rdi
  0000b	48 83 ec 20	 sub	 rsp, 32			; 00000020H

; 1391 :     register unsigned n, m;
; 1392 :     register Posf *p;
; 1393 :     unsigned more;    /* Amount of free space at the end of the window. */
; 1394 :     uInt wsize = s->w_size;

  0000f	8b 79 44	 mov	 edi, DWORD PTR [rcx+68]
  00012	48 8b d9	 mov	 rbx, rcx
  00015	48 89 6c 24 30	 mov	 QWORD PTR [rsp+48], rbp
  0001a	66 0f 1f 44 00
	00		 npad	 6
$LL26@fill_windo:

; 1395 : 
; 1396 :     Assert(s->lookahead < MIN_LOOKAHEAD, "already enough lookahead");
; 1397 : 
; 1398 :     do {
; 1399 :         more = (unsigned)(s->window_size -(ulg)s->lookahead -(ulg)s->strstart);

  00020	8b 93 94 00 00
	00		 mov	 edx, DWORD PTR [rbx+148]
  00026	8b 73 58	 mov	 esi, DWORD PTR [rbx+88]

; 1400 : 
; 1401 :         /* Deal with !@#$% 64K limit: */
; 1402 :         if (sizeof(int) <= 2) {
; 1403 :             if (more == 0 && s->strstart == 0 && s->lookahead == 0) {
; 1404 :                 more = wsize;
; 1405 : 
; 1406 :             } else if (more == (unsigned)(-1)) {
; 1407 :                 /* Very unlikely, but possible on 16 bit machine if
; 1408 :                  * strstart == 0 && lookahead == 1 (input done a byte at time)
; 1409 :                  */
; 1410 :                 more--;
; 1411 :             }
; 1412 :         }
; 1413 : 
; 1414 :         /* If the window is almost full and there is insufficient lookahead,
; 1415 :          * move the upper half to the lower one to make room in the upper half.
; 1416 :          */
; 1417 :         if (s->strstart >= wsize+MAX_DIST(s)) {

  00029	8b 43 44	 mov	 eax, DWORD PTR [rbx+68]
  0002c	2b b3 9c 00 00
	00		 sub	 esi, DWORD PTR [rbx+156]
  00032	8d 8c 07 fa fe
	ff ff		 lea	 ecx, DWORD PTR [rdi+rax-262]
  00039	2b f2		 sub	 esi, edx
  0003b	3b d1		 cmp	 edx, ecx
  0003d	72 70		 jb	 SHORT $LN19@fill_windo

; 1418 : 
; 1419 :             zmemcpy(s->window, s->window+wsize, (unsigned)wsize);

  0003f	48 8b 4b 50	 mov	 rcx, QWORD PTR [rbx+80]
  00043	4c 8b c7	 mov	 r8, rdi
  00046	48 8d 14 39	 lea	 rdx, QWORD PTR [rcx+rdi]
  0004a	e8 00 00 00 00	 call	 memcpy

; 1420 :             s->match_start -= wsize;
; 1421 :             s->strstart    -= wsize; /* we now have strstart >= MAX_DIST */
; 1422 :             s->block_start -= (long) wsize;
; 1423 : 
; 1424 :             /* Slide the hash table (could be avoided with 32 bit values
; 1425 :                at the expense of memory usage). We slide even when level == 0
; 1426 :                to keep the hash table consistent if we switch back to level > 0
; 1427 :                later. (Using level 0 permanently is not an optimal usage of
; 1428 :                zlib, so we don't care about this pathological case.)
; 1429 :              */
; 1430 :             n = s->hash_size;

  0004f	44 8b 43 74	 mov	 r8d, DWORD PTR [rbx+116]

; 1431 :             p = &s->head[n];

  00053	48 8b 43 68	 mov	 rax, QWORD PTR [rbx+104]
  00057	29 bb 98 00 00
	00		 sub	 DWORD PTR [rbx+152], edi
  0005d	29 bb 94 00 00
	00		 sub	 DWORD PTR [rbx+148], edi
  00063	29 bb 84 00 00
	00		 sub	 DWORD PTR [rbx+132], edi
  00069	4a 8d 14 40	 lea	 rdx, QWORD PTR [rax+r8*2]
  0006d	0f 1f 00	 npad	 3
$LL18@fill_windo:

; 1432 :             do {
; 1433 :                 m = *--p;

  00070	0f b7 42 fe	 movzx	 eax, WORD PTR [rdx-2]
  00074	48 83 ea 02	 sub	 rdx, 2

; 1434 :                 *p = (Pos)(m >= wsize ? m-wsize : NIL);

  00078	3b c7		 cmp	 eax, edi
  0007a	72 04		 jb	 SHORT $LN29@fill_windo
  0007c	2b c7		 sub	 eax, edi
  0007e	eb 02		 jmp	 SHORT $LN30@fill_windo
$LN29@fill_windo:
  00080	33 c0		 xor	 eax, eax
$LN30@fill_windo:

; 1435 :             } while (--n);

  00082	41 ff c8	 dec	 r8d
  00085	66 89 02	 mov	 WORD PTR [rdx], ax
  00088	75 e6		 jne	 SHORT $LL18@fill_windo

; 1436 : 
; 1437 :             n = wsize;
; 1438 : #ifndef FASTEST
; 1439 :             p = &s->prev[n];

  0008a	48 8b 43 60	 mov	 rax, QWORD PTR [rbx+96]
  0008e	8b d7		 mov	 edx, edi
  00090	48 8d 0c 78	 lea	 rcx, QWORD PTR [rax+rdi*2]
$LL15@fill_windo:

; 1440 :             do {
; 1441 :                 m = *--p;

  00094	0f b7 41 fe	 movzx	 eax, WORD PTR [rcx-2]
  00098	48 83 e9 02	 sub	 rcx, 2

; 1442 :                 *p = (Pos)(m >= wsize ? m-wsize : NIL);

  0009c	3b c7		 cmp	 eax, edi
  0009e	72 04		 jb	 SHORT $LN31@fill_windo
  000a0	2b c7		 sub	 eax, edi
  000a2	eb 02		 jmp	 SHORT $LN32@fill_windo
$LN31@fill_windo:
  000a4	33 c0		 xor	 eax, eax
$LN32@fill_windo:

; 1443 :                 /* If n is not on any hash chain, prev[n] is garbage but
; 1444 :                  * its value will never be used.
; 1445 :                  */
; 1446 :             } while (--n);

  000a6	ff ca		 dec	 edx
  000a8	66 89 01	 mov	 WORD PTR [rcx], ax
  000ab	75 e7		 jne	 SHORT $LL15@fill_windo

; 1447 : #endif
; 1448 :             more += wsize;

  000ad	03 f7		 add	 esi, edi
$LN19@fill_windo:

; 1449 :         }
; 1450 :         if (s->strm->avail_in == 0) break;

  000af	48 8b 0b	 mov	 rcx, QWORD PTR [rbx]
  000b2	83 79 08 00	 cmp	 DWORD PTR [rcx+8], 0
  000b6	0f 84 f9 00 00
	00		 je	 $LN24@fill_windo

; 1451 : 
; 1452 :         /* If there was no sliding:
; 1453 :          *    strstart <= WSIZE+MAX_DIST-1 && lookahead <= MIN_LOOKAHEAD - 1 &&
; 1454 :          *    more == window_size - lookahead - strstart
; 1455 :          * => more >= window_size - (MIN_LOOKAHEAD-1 + WSIZE + MAX_DIST-1)
; 1456 :          * => more >= window_size - 2*WSIZE + 2
; 1457 :          * In the BIG_MEM or MMAP case (not yet supported),
; 1458 :          *   window_size == input_size + MIN_LOOKAHEAD  &&
; 1459 :          *   strstart + s->lookahead <= input_size => more >= MIN_LOOKAHEAD.
; 1460 :          * Otherwise, window_size == 2*WSIZE so more >= 2.
; 1461 :          * If there was sliding, more >= WSIZE. So in all cases, more >= 2.
; 1462 :          */
; 1463 :         Assert(more >= 2, "more < 2");
; 1464 : 
; 1465 :         n = read_buf(s->strm, s->window + s->strstart + s->lookahead, more);

  000bc	8b 93 9c 00 00
	00		 mov	 edx, DWORD PTR [rbx+156]
  000c2	8b 83 94 00 00
	00		 mov	 eax, DWORD PTR [rbx+148]
  000c8	44 8b c6	 mov	 r8d, esi
  000cb	48 03 d0	 add	 rdx, rax
  000ce	48 03 53 50	 add	 rdx, QWORD PTR [rbx+80]
  000d2	e8 00 00 00 00	 call	 read_buf

; 1466 :         s->lookahead += n;
; 1467 : 
; 1468 :         /* Initialize the hash value now that we have some input: */
; 1469 :         if (s->lookahead + s->insert >= MIN_MATCH) {

  000d7	44 8b 8b 0c 17
	00 00		 mov	 r9d, DWORD PTR [rbx+5900]
  000de	01 83 9c 00 00
	00		 add	 DWORD PTR [rbx+156], eax
  000e4	8b 83 9c 00 00
	00		 mov	 eax, DWORD PTR [rbx+156]
  000ea	41 03 c1	 add	 eax, r9d
  000ed	83 f8 03	 cmp	 eax, 3
  000f0	0f 82 a6 00 00
	00		 jb	 $LN25@fill_windo

; 1470 :             uInt str = s->strstart - s->insert;

  000f6	44 8b 93 94 00
	00 00		 mov	 r10d, DWORD PTR [rbx+148]

; 1471 :             s->ins_h = s->window[str];

  000fd	48 8b 53 50	 mov	 rdx, QWORD PTR [rbx+80]

; 1472 :             UPDATE_HASH(s, s->ins_h, s->window[str + 1]);

  00101	8b 8b 80 00 00
	00		 mov	 ecx, DWORD PTR [rbx+128]
  00107	45 2b d1	 sub	 r10d, r9d
  0010a	45 0f b6 04 12	 movzx	 r8d, BYTE PTR [r10+rdx]
  0010f	41 8d 42 01	 lea	 eax, DWORD PTR [r10+1]
  00113	44 89 43 70	 mov	 DWORD PTR [rbx+112], r8d
  00117	0f b6 04 10	 movzx	 eax, BYTE PTR [rax+rdx]
  0011b	41 d3 e0	 shl	 r8d, cl
  0011e	41 33 c0	 xor	 eax, r8d
  00121	23 43 7c	 and	 eax, DWORD PTR [rbx+124]
  00124	89 43 70	 mov	 DWORD PTR [rbx+112], eax

; 1473 : #if MIN_MATCH != 3
; 1474 :             Call UPDATE_HASH() MIN_MATCH-3 more times
; 1475 : #endif
; 1476 :             while (s->insert) {

  00127	45 85 c9	 test	 r9d, r9d
  0012a	74 70		 je	 SHORT $LN25@fill_windo

; 1470 :             uInt str = s->strstart - s->insert;

  0012c	45 8d 5a 02	 lea	 r11d, DWORD PTR [r10+2]
$LL10@fill_windo:

; 1477 :                 UPDATE_HASH(s, s->ins_h, s->window[str + MIN_MATCH-1]);

  00130	48 8b 43 50	 mov	 rax, QWORD PTR [rbx+80]
  00134	8b 8b 80 00 00
	00		 mov	 ecx, DWORD PTR [rbx+128]

; 1478 : #ifndef FASTEST
; 1479 :                 s->prev[str & s->w_mask] = s->head[s->ins_h];

  0013a	48 8b 53 68	 mov	 rdx, QWORD PTR [rbx+104]
  0013e	45 0f b6 0c 03	 movzx	 r9d, BYTE PTR [r11+rax]
  00143	8b 43 70	 mov	 eax, DWORD PTR [rbx+112]
  00146	45 8b c2	 mov	 r8d, r10d
  00149	d3 e0		 shl	 eax, cl
  0014b	48 8b 4b 60	 mov	 rcx, QWORD PTR [rbx+96]

; 1480 : #endif
; 1481 :                 s->head[s->ins_h] = (Pos)str;
; 1482 :                 str++;

  0014f	41 ff c3	 inc	 r11d
  00152	44 33 c8	 xor	 r9d, eax
  00155	8b 43 4c	 mov	 eax, DWORD PTR [rbx+76]
  00158	44 23 4b 7c	 and	 r9d, DWORD PTR [rbx+124]
  0015c	4c 23 c0	 and	 r8, rax
  0015f	44 89 4b 70	 mov	 DWORD PTR [rbx+112], r9d
  00163	42 0f b7 04 4a	 movzx	 eax, WORD PTR [rdx+r9*2]
  00168	66 42 89 04 41	 mov	 WORD PTR [rcx+r8*2], ax
  0016d	8b 4b 70	 mov	 ecx, DWORD PTR [rbx+112]
  00170	48 8b 43 68	 mov	 rax, QWORD PTR [rbx+104]
  00174	66 44 89 14 48	 mov	 WORD PTR [rax+rcx*2], r10w

; 1483 :                 s->insert--;

  00179	ff 8b 0c 17 00
	00		 dec	 DWORD PTR [rbx+5900]
  0017f	8b 8b 0c 17 00
	00		 mov	 ecx, DWORD PTR [rbx+5900]

; 1484 :                 if (s->lookahead + s->insert < MIN_MATCH)

  00185	03 8b 9c 00 00
	00		 add	 ecx, DWORD PTR [rbx+156]
  0018b	41 ff c2	 inc	 r10d
  0018e	83 f9 03	 cmp	 ecx, 3
  00191	72 09		 jb	 SHORT $LN25@fill_windo

; 1473 : #if MIN_MATCH != 3
; 1474 :             Call UPDATE_HASH() MIN_MATCH-3 more times
; 1475 : #endif
; 1476 :             while (s->insert) {

  00193	83 bb 0c 17 00
	00 00		 cmp	 DWORD PTR [rbx+5900], 0
  0019a	75 94		 jne	 SHORT $LL10@fill_windo
$LN25@fill_windo:

; 1485 :                     break;
; 1486 :             }
; 1487 :         }
; 1488 :         /* If the whole input has less than MIN_MATCH bytes, ins_h is garbage,
; 1489 :          * but this is not important since only literal bytes will be emitted.
; 1490 :          */
; 1491 : 
; 1492 :     } while (s->lookahead < MIN_LOOKAHEAD && s->strm->avail_in != 0);

  0019c	81 bb 9c 00 00
	00 06 01 00 00	 cmp	 DWORD PTR [rbx+156], 262 ; 00000106H
  001a6	73 0d		 jae	 SHORT $LN24@fill_windo
  001a8	48 8b 03	 mov	 rax, QWORD PTR [rbx]
  001ab	83 78 08 00	 cmp	 DWORD PTR [rax+8], 0
  001af	0f 85 6b fe ff
	ff		 jne	 $LL26@fill_windo
$LN24@fill_windo:

; 1493 : 
; 1494 :     /* If the WIN_INIT bytes after the end of the current data have never been
; 1495 :      * written, then zero those bytes in order to avoid memory check reports of
; 1496 :      * the use of uninitialized (or uninitialised as Julian writes) bytes by
; 1497 :      * the longest match routines.  Update the high water mark for the next
; 1498 :      * time through here.  WIN_INIT is set to MAX_MATCH since the longest match
; 1499 :      * routines allow scanning to strstart + MAX_MATCH, ignoring lookahead.
; 1500 :      */
; 1501 :     if (s->high_water < s->window_size) {

  001b5	8b 8b 18 17 00
	00		 mov	 ecx, DWORD PTR [rbx+5912]
  001bb	8b 73 58	 mov	 esi, DWORD PTR [rbx+88]
  001be	48 8b 6c 24 30	 mov	 rbp, QWORD PTR [rsp+48]
  001c3	3b ce		 cmp	 ecx, esi
  001c5	73 75		 jae	 SHORT $LN2@fill_windo

; 1502 :         ulg curr = s->strstart + (ulg)(s->lookahead);

  001c7	8b bb 9c 00 00
	00		 mov	 edi, DWORD PTR [rbx+156]
  001cd	03 bb 94 00 00
	00		 add	 edi, DWORD PTR [rbx+148]

; 1503 :         ulg init;
; 1504 : 
; 1505 :         if (s->high_water < curr) {

  001d3	3b cf		 cmp	 ecx, edi
  001d5	73 37		 jae	 SHORT $LN5@fill_windo

; 1506 :             /* Previous high water mark below current data -- zero WIN_INIT
; 1507 :              * bytes or up to end of window, whichever is less.
; 1508 :              */
; 1509 :             init = s->window_size - curr;

  001d7	2b f7		 sub	 esi, edi

; 1510 :             if (init > WIN_INIT)

  001d9	b8 02 01 00 00	 mov	 eax, 258		; 00000102H

; 1511 :                 init = WIN_INIT;
; 1512 :             zmemzero(s->window + curr, (unsigned)init);

  001de	8b cf		 mov	 ecx, edi
  001e0	3b f0		 cmp	 esi, eax
  001e2	0f 47 f0	 cmova	 esi, eax
  001e5	48 03 4b 50	 add	 rcx, QWORD PTR [rbx+80]
  001e9	33 d2		 xor	 edx, edx
  001eb	44 8b c6	 mov	 r8d, esi
  001ee	e8 00 00 00 00	 call	 memset

; 1513 :             s->high_water = curr + init;

  001f3	44 8d 1c 3e	 lea	 r11d, DWORD PTR [rsi+rdi]
  001f7	44 89 9b 18 17
	00 00		 mov	 DWORD PTR [rbx+5912], r11d

; 1525 :         }
; 1526 :     }
; 1527 : 
; 1528 :     Assert((ulg)s->strstart <= s->window_size - MIN_LOOKAHEAD,
; 1529 :            "not enough room for search");
; 1530 : }

  001fe	48 8b 5c 24 38	 mov	 rbx, QWORD PTR [rsp+56]
  00203	48 8b 74 24 40	 mov	 rsi, QWORD PTR [rsp+64]
  00208	48 83 c4 20	 add	 rsp, 32			; 00000020H
  0020c	5f		 pop	 rdi
  0020d	c3		 ret	 0
$LN5@fill_windo:

; 1514 :         }
; 1515 :         else if (s->high_water < (ulg)curr + WIN_INIT) {

  0020e	8d 87 02 01 00
	00		 lea	 eax, DWORD PTR [rdi+258]
  00214	3b c8		 cmp	 ecx, eax
  00216	73 24		 jae	 SHORT $LN2@fill_windo

; 1516 :             /* High water mark at or above current data, but below current data
; 1517 :              * plus WIN_INIT -- zero out to current data plus WIN_INIT, or up
; 1518 :              * to end of window, whichever is less.
; 1519 :              */
; 1520 :             init = (ulg)curr + WIN_INIT - s->high_water;

  00218	2b f9		 sub	 edi, ecx

; 1521 :             if (init > s->window_size - s->high_water)

  0021a	2b f1		 sub	 esi, ecx
  0021c	b8 02 01 00 00	 mov	 eax, 258		; 00000102H
  00221	03 f8		 add	 edi, eax
  00223	3b fe		 cmp	 edi, esi
  00225	0f 47 fe	 cmova	 edi, esi

; 1522 :                 init = s->window_size - s->high_water;
; 1523 :             zmemzero(s->window + s->high_water, (unsigned)init);

  00228	48 03 4b 50	 add	 rcx, QWORD PTR [rbx+80]
  0022c	33 d2		 xor	 edx, edx
  0022e	44 8b c7	 mov	 r8d, edi
  00231	e8 00 00 00 00	 call	 memset

; 1524 :             s->high_water += init;

  00236	01 bb 18 17 00
	00		 add	 DWORD PTR [rbx+5912], edi
$LN2@fill_windo:

; 1525 :         }
; 1526 :     }
; 1527 : 
; 1528 :     Assert((ulg)s->strstart <= s->window_size - MIN_LOOKAHEAD,
; 1529 :            "not enough room for search");
; 1530 : }

  0023c	48 8b 5c 24 38	 mov	 rbx, QWORD PTR [rsp+56]
  00241	48 8b 74 24 40	 mov	 rsi, QWORD PTR [rsp+64]
  00246	48 83 c4 20	 add	 rsp, 32			; 00000020H
  0024a	5f		 pop	 rdi
  0024b	c3		 ret	 0
fill_window ENDP
_TEXT	ENDS
PUBLIC	deflateReset
;	COMDAT pdata
pdata	SEGMENT
$pdata$deflateReset DD imagerel $LN5
	DD	imagerel $LN5+46
	DD	imagerel $unwind$deflateReset
pdata	ENDS
;	COMDAT xdata
xdata	SEGMENT
$unwind$deflateReset DD 040a01H
	DD	06340aH
	DD	07006320aH
; Function compile flags: /Ogtpy
xdata	ENDS
;	COMDAT deflateReset
_TEXT	SEGMENT
strm$ = 48
deflateReset PROC					; COMDAT

; 429  : {

$LN5:
  00000	48 89 5c 24 08	 mov	 QWORD PTR [rsp+8], rbx
  00005	57		 push	 rdi
  00006	48 83 ec 20	 sub	 rsp, 32			; 00000020H
  0000a	48 8b f9	 mov	 rdi, rcx

; 430  :     int ret;
; 431  : 
; 432  :     ret = deflateResetKeep(strm);

  0000d	e8 00 00 00 00	 call	 deflateResetKeep
  00012	8b d8		 mov	 ebx, eax

; 433  :     if (ret == Z_OK)

  00014	85 c0		 test	 eax, eax
  00016	75 0b		 jne	 SHORT $LN1@deflateRes@2

; 434  :         lm_init(strm->state);

  00018	48 8b 4f 28	 mov	 rcx, QWORD PTR [rdi+40]
  0001c	e8 00 00 00 00	 call	 lm_init

; 435  :     return ret;

  00021	8b c3		 mov	 eax, ebx
$LN1@deflateRes@2:

; 436  : }

  00023	48 8b 5c 24 30	 mov	 rbx, QWORD PTR [rsp+48]
  00028	48 83 c4 20	 add	 rsp, 32			; 00000020H
  0002c	5f		 pop	 rdi
  0002d	c3		 ret	 0
deflateReset ENDP
_TEXT	ENDS
PUBLIC	deflateSetDictionary
;	COMDAT pdata
pdata	SEGMENT
$pdata$deflateSetDictionary DD imagerel $LN20
	DD	imagerel $LN20+49
	DD	imagerel $unwind$deflateSetDictionary
pdata	ENDS
;	COMDAT pdata
pdata	SEGMENT
$pdata$3$deflateSetDictionary DD imagerel $LN20+49
	DD	imagerel $LN20+513
	DD	imagerel $chain$3$deflateSetDictionary
pdata	ENDS
;	COMDAT pdata
pdata	SEGMENT
$pdata$5$deflateSetDictionary DD imagerel $LN20+513
	DD	imagerel $LN20+532
	DD	imagerel $chain$5$deflateSetDictionary
pdata	ENDS
;	COMDAT pdata
pdata	SEGMENT
$pdata$6$deflateSetDictionary DD imagerel $LN20+532
	DD	imagerel $LN20+546
	DD	imagerel $chain$6$deflateSetDictionary
pdata	ENDS
;	COMDAT xdata
xdata	SEGMENT
$chain$6$deflateSetDictionary DD 021H
	DD	imagerel $LN20
	DD	imagerel $LN20+49
	DD	imagerel $unwind$deflateSetDictionary
xdata	ENDS
;	COMDAT xdata
xdata	SEGMENT
$chain$5$deflateSetDictionary DD 020021H
	DD	0ac400H
	DD	imagerel $LN20
	DD	imagerel $LN20+49
	DD	imagerel $unwind$deflateSetDictionary
xdata	ENDS
;	COMDAT xdata
xdata	SEGMENT
$chain$3$deflateSetDictionary DD 083f21H
	DD	04f43fH
	DD	0ce43aH
	DD	0bd435H
	DD	0ac405H
	DD	imagerel $LN20
	DD	imagerel $LN20+49
	DD	imagerel $unwind$deflateSetDictionary
xdata	ENDS
;	COMDAT xdata
xdata	SEGMENT
$unwind$deflateSetDictionary DD 050901H
	DD	070054209H
	DD	050036004H
	DD	03002H
; Function compile flags: /Ogtpy
xdata	ENDS
;	COMDAT deflateSetDictionary
_TEXT	SEGMENT
strm$ = 80
dictionary$ = 88
dictLength$ = 96
deflateSetDictionary PROC				; COMDAT

; 327  : {

$LN20:
  00000	40 53		 push	 rbx
  00002	55		 push	 rbp
  00003	56		 push	 rsi
  00004	57		 push	 rdi
  00005	48 83 ec 28	 sub	 rsp, 40			; 00000028H
  00009	41 8b f8	 mov	 edi, r8d
  0000c	48 8b ea	 mov	 rbp, rdx
  0000f	48 8b f1	 mov	 rsi, rcx

; 328  :     deflate_state *s;
; 329  :     uInt str, n;
; 330  :     int wrap;
; 331  :     unsigned avail;
; 332  :     unsigned char *next;
; 333  : 
; 334  :     if (strm == Z_NULL || strm->state == Z_NULL || dictionary == Z_NULL)

  00012	48 85 c9	 test	 rcx, rcx
  00015	0f 84 f9 01 00
	00		 je	 $LN12@deflateSet@2
  0001b	48 8b 59 28	 mov	 rbx, QWORD PTR [rcx+40]
  0001f	48 85 db	 test	 rbx, rbx
  00022	0f 84 ec 01 00
	00		 je	 $LN12@deflateSet@2
  00028	48 85 d2	 test	 rdx, rdx
  0002b	0f 84 e3 01 00
	00		 je	 $LN12@deflateSet@2

; 336  :     s = strm->state;
; 337  :     wrap = s->wrap;

  00031	4c 89 64 24 50	 mov	 QWORD PTR [rsp+80], r12
  00036	44 8b 63 2c	 mov	 r12d, DWORD PTR [rbx+44]

; 338  :     if (wrap == 2 || (wrap == 1 && s->status != INIT_STATE) || s->lookahead)

  0003a	41 83 fc 02	 cmp	 r12d, 2
  0003e	0f 84 bd 01 00
	00		 je	 $LN10@deflateSet@2
  00044	41 83 fc 01	 cmp	 r12d, 1
  00048	75 0a		 jne	 SHORT $LN9@deflateSet@2
  0004a	83 7b 08 2a	 cmp	 DWORD PTR [rbx+8], 42	; 0000002aH
  0004e	0f 85 ad 01 00
	00		 jne	 $LN10@deflateSet@2
$LN9@deflateSet@2:
  00054	83 bb 9c 00 00
	00 00		 cmp	 DWORD PTR [rbx+156], 0
  0005b	0f 85 a0 01 00
	00		 jne	 $LN10@deflateSet@2

; 340  : 
; 341  :     /* when using zlib wrappers, compute Adler-32 for provided dictionary */
; 342  :     if (wrap == 1)

  00061	4c 89 6c 24 58	 mov	 QWORD PTR [rsp+88], r13
  00066	4c 89 74 24 60	 mov	 QWORD PTR [rsp+96], r14
  0006b	4c 89 7c 24 20	 mov	 QWORD PTR [rsp+32], r15
  00070	41 83 fc 01	 cmp	 r12d, 1
  00074	75 0b		 jne	 SHORT $LN8@deflateSet@2

; 343  :         strm->adler = adler32(strm->adler, dictionary, dictLength);

  00076	8b 49 4c	 mov	 ecx, DWORD PTR [rcx+76]
  00079	e8 00 00 00 00	 call	 adler32
  0007e	89 46 4c	 mov	 DWORD PTR [rsi+76], eax
$LN8@deflateSet@2:

; 344  :     s->wrap = 0;                    /* avoid computing Adler-32 in read_buf */

  00081	45 33 ff	 xor	 r15d, r15d
  00084	44 89 7b 2c	 mov	 DWORD PTR [rbx+44], r15d

; 345  : 
; 346  :     /* if dictionary would fill window, just replace the history */
; 347  :     if (dictLength >= s->w_size) {

  00088	3b 7b 44	 cmp	 edi, DWORD PTR [rbx+68]
  0008b	72 49		 jb	 SHORT $LN7@deflateSet@2

; 348  :         if (wrap == 0) {            /* already empty otherwise */

  0008d	45 85 e4	 test	 r12d, r12d
  00090	75 38		 jne	 SHORT $LN6@deflateSet@2

; 349  :             CLEAR_HASH(s);

  00092	8b 4b 74	 mov	 ecx, DWORD PTR [rbx+116]
  00095	48 8b 43 68	 mov	 rax, QWORD PTR [rbx+104]
  00099	33 d2		 xor	 edx, edx
  0009b	ff c9		 dec	 ecx
  0009d	66 44 89 3c 48	 mov	 WORD PTR [rax+rcx*2], r15w
  000a2	44 8b 43 74	 mov	 r8d, DWORD PTR [rbx+116]
  000a6	48 8b 4b 68	 mov	 rcx, QWORD PTR [rbx+104]
  000aa	41 ff c8	 dec	 r8d
  000ad	4d 03 c0	 add	 r8, r8
  000b0	e8 00 00 00 00	 call	 memset

; 350  :             s->strstart = 0;

  000b5	44 89 bb 94 00
	00 00		 mov	 DWORD PTR [rbx+148], r15d

; 351  :             s->block_start = 0L;

  000bc	44 89 bb 84 00
	00 00		 mov	 DWORD PTR [rbx+132], r15d

; 352  :             s->insert = 0;

  000c3	44 89 bb 0c 17
	00 00		 mov	 DWORD PTR [rbx+5900], r15d
$LN6@deflateSet@2:

; 353  :         }
; 354  :         dictionary += dictLength - s->w_size;  /* use the tail */

  000ca	8b 4b 44	 mov	 ecx, DWORD PTR [rbx+68]
  000cd	2b f9		 sub	 edi, ecx
  000cf	8b c7		 mov	 eax, edi

; 355  :         dictLength = s->w_size;

  000d1	8b f9		 mov	 edi, ecx
  000d3	48 03 e8	 add	 rbp, rax
$LN7@deflateSet@2:

; 356  :     }
; 357  : 
; 358  :     /* insert dictionary into window and hash */
; 359  :     avail = strm->avail_in;

  000d6	44 8b 6e 08	 mov	 r13d, DWORD PTR [rsi+8]

; 360  :     next = strm->next_in;

  000da	4c 8b 36	 mov	 r14, QWORD PTR [rsi]

; 361  :     strm->avail_in = dictLength;
; 362  :     strm->next_in = (Bytef *)dictionary;
; 363  :     fill_window(s);

  000dd	48 8b cb	 mov	 rcx, rbx
  000e0	89 7e 08	 mov	 DWORD PTR [rsi+8], edi
  000e3	48 89 2e	 mov	 QWORD PTR [rsi], rbp
  000e6	e8 00 00 00 00	 call	 fill_window

; 364  :     while (s->lookahead >= MIN_MATCH) {

  000eb	83 bb 9c 00 00
	00 03		 cmp	 DWORD PTR [rbx+156], 3
  000f2	0f 82 9f 00 00
	00		 jb	 $LN4@deflateSet@2
  000f8	0f 1f 84 00 00
	00 00 00	 npad	 8
$LL5@deflateSet@2:

; 365  :         str = s->strstart;

  00100	44 8b 93 94 00
	00 00		 mov	 r10d, DWORD PTR [rbx+148]

; 366  :         n = s->lookahead - (MIN_MATCH-1);

  00107	44 8b 9b 9c 00
	00 00		 mov	 r11d, DWORD PTR [rbx+156]
  0010e	41 8d 7a 02	 lea	 edi, DWORD PTR [r10+2]
  00112	41 83 eb 02	 sub	 r11d, 2
  00116	66 66 0f 1f 84
	00 00 00 00 00	 npad	 10
$LL3@deflateSet@2:

; 367  :         do {
; 368  :             UPDATE_HASH(s, s->ins_h, s->window[str + MIN_MATCH-1]);

  00120	48 8b 43 50	 mov	 rax, QWORD PTR [rbx+80]
  00124	8b 8b 80 00 00
	00		 mov	 ecx, DWORD PTR [rbx+128]

; 369  : #ifndef FASTEST
; 370  :             s->prev[str & s->w_mask] = s->head[s->ins_h];

  0012a	48 8b 53 68	 mov	 rdx, QWORD PTR [rbx+104]
  0012e	44 0f b6 0c 07	 movzx	 r9d, BYTE PTR [rdi+rax]
  00133	8b 43 70	 mov	 eax, DWORD PTR [rbx+112]
  00136	44 8b 43 4c	 mov	 r8d, DWORD PTR [rbx+76]
  0013a	d3 e0		 shl	 eax, cl
  0013c	48 8b 4b 60	 mov	 rcx, QWORD PTR [rbx+96]

; 371  : #endif
; 372  :             s->head[s->ins_h] = (Pos)str;
; 373  :             str++;

  00140	ff c7		 inc	 edi
  00142	44 33 c8	 xor	 r9d, eax
  00145	41 8b c2	 mov	 eax, r10d
  00148	44 23 4b 7c	 and	 r9d, DWORD PTR [rbx+124]
  0014c	4c 23 c0	 and	 r8, rax
  0014f	44 89 4b 70	 mov	 DWORD PTR [rbx+112], r9d
  00153	42 0f b7 04 4a	 movzx	 eax, WORD PTR [rdx+r9*2]
  00158	66 42 89 04 41	 mov	 WORD PTR [rcx+r8*2], ax
  0015d	8b 4b 70	 mov	 ecx, DWORD PTR [rbx+112]
  00160	48 8b 43 68	 mov	 rax, QWORD PTR [rbx+104]
  00164	66 44 89 14 48	 mov	 WORD PTR [rax+rcx*2], r10w
  00169	41 ff c2	 inc	 r10d

; 374  :         } while (--n);

  0016c	41 ff cb	 dec	 r11d
  0016f	75 af		 jne	 SHORT $LL3@deflateSet@2

; 375  :         s->strstart = str;
; 376  :         s->lookahead = MIN_MATCH-1;
; 377  :         fill_window(s);

  00171	48 8b cb	 mov	 rcx, rbx
  00174	44 89 93 94 00
	00 00		 mov	 DWORD PTR [rbx+148], r10d
  0017b	c7 83 9c 00 00
	00 02 00 00 00	 mov	 DWORD PTR [rbx+156], 2
  00185	e8 00 00 00 00	 call	 fill_window
  0018a	83 bb 9c 00 00
	00 03		 cmp	 DWORD PTR [rbx+156], 3
  00191	0f 83 69 ff ff
	ff		 jae	 $LL5@deflateSet@2
$LN4@deflateSet@2:

; 378  :     }
; 379  :     s->strstart += s->lookahead;

  00197	8b 8b 9c 00 00
	00		 mov	 ecx, DWORD PTR [rbx+156]

; 380  :     s->block_start = (long)s->strstart;
; 381  :     s->insert = s->lookahead;
; 382  :     s->lookahead = 0;
; 383  :     s->match_length = s->prev_length = MIN_MATCH-1;
; 384  :     s->match_available = 0;

  0019d	44 89 bb 90 00
	00 00		 mov	 DWORD PTR [rbx+144], r15d
  001a4	44 89 bb 9c 00
	00 00		 mov	 DWORD PTR [rbx+156], r15d
  001ab	01 8b 94 00 00
	00		 add	 DWORD PTR [rbx+148], ecx
  001b1	8b 83 94 00 00
	00		 mov	 eax, DWORD PTR [rbx+148]
  001b7	4c 8b 7c 24 20	 mov	 r15, QWORD PTR [rsp+32]
  001bc	89 83 84 00 00
	00		 mov	 DWORD PTR [rbx+132], eax
  001c2	89 8b 0c 17 00
	00		 mov	 DWORD PTR [rbx+5900], ecx
  001c8	c7 83 a0 00 00
	00 02 00 00 00	 mov	 DWORD PTR [rbx+160], 2
  001d2	c7 83 88 00 00
	00 02 00 00 00	 mov	 DWORD PTR [rbx+136], 2

; 385  :     strm->next_in = next;

  001dc	4c 89 36	 mov	 QWORD PTR [rsi], r14
  001df	4c 8b 74 24 60	 mov	 r14, QWORD PTR [rsp+96]

; 386  :     strm->avail_in = avail;

  001e4	44 89 6e 08	 mov	 DWORD PTR [rsi+8], r13d
  001e8	4c 8b 6c 24 58	 mov	 r13, QWORD PTR [rsp+88]

; 387  :     s->wrap = wrap;

  001ed	44 89 63 2c	 mov	 DWORD PTR [rbx+44], r12d
  001f1	4c 8b 64 24 50	 mov	 r12, QWORD PTR [rsp+80]

; 388  :     return Z_OK;

  001f6	33 c0		 xor	 eax, eax

; 389  : }

  001f8	48 83 c4 28	 add	 rsp, 40			; 00000028H
  001fc	5f		 pop	 rdi
  001fd	5e		 pop	 rsi
  001fe	5d		 pop	 rbp
  001ff	5b		 pop	 rbx
  00200	c3		 ret	 0
$LN10@deflateSet@2:

; 339  :         return Z_STREAM_ERROR;

  00201	b8 fe ff ff ff	 mov	 eax, -2
  00206	4c 8b 64 24 50	 mov	 r12, QWORD PTR [rsp+80]

; 389  : }

  0020b	48 83 c4 28	 add	 rsp, 40			; 00000028H
  0020f	5f		 pop	 rdi
  00210	5e		 pop	 rsi
  00211	5d		 pop	 rbp
  00212	5b		 pop	 rbx
  00213	c3		 ret	 0
$LN12@deflateSet@2:

; 335  :         return Z_STREAM_ERROR;

  00214	b8 fe ff ff ff	 mov	 eax, -2

; 389  : }

  00219	48 83 c4 28	 add	 rsp, 40			; 00000028H
  0021d	5f		 pop	 rdi
  0021e	5e		 pop	 rsi
  0021f	5d		 pop	 rbp
  00220	5b		 pop	 rbx
  00221	c3		 ret	 0
deflateSetDictionary ENDP
_TEXT	ENDS
PUBLIC	deflateInit2_
;	COMDAT pdata
pdata	SEGMENT
$pdata$deflateInit2_ DD imagerel $LN22
	DD	imagerel $LN22+91
	DD	imagerel $unwind$deflateInit2_
pdata	ENDS
;	COMDAT pdata
pdata	SEGMENT
$pdata$1$deflateInit2_ DD imagerel $LN22+91
	DD	imagerel $LN22+271
	DD	imagerel $chain$1$deflateInit2_
pdata	ENDS
;	COMDAT pdata
pdata	SEGMENT
$pdata$2$deflateInit2_ DD imagerel $LN22+271
	DD	imagerel $LN22+567
	DD	imagerel $chain$2$deflateInit2_
pdata	ENDS
;	COMDAT pdata
pdata	SEGMENT
$pdata$3$deflateInit2_ DD imagerel $LN22+567
	DD	imagerel $LN22+589
	DD	imagerel $chain$3$deflateInit2_
pdata	ENDS
;	COMDAT pdata
pdata	SEGMENT
$pdata$5$deflateInit2_ DD imagerel $LN22+589
	DD	imagerel $LN22+622
	DD	imagerel $chain$5$deflateInit2_
pdata	ENDS
;	COMDAT pdata
pdata	SEGMENT
$pdata$6$deflateInit2_ DD imagerel $LN22+622
	DD	imagerel $LN22+629
	DD	imagerel $chain$6$deflateInit2_
pdata	ENDS
;	COMDAT pdata
pdata	SEGMENT
$pdata$7$deflateInit2_ DD imagerel $LN22+629
	DD	imagerel $LN22+646
	DD	imagerel $chain$7$deflateInit2_
pdata	ENDS
;	COMDAT xdata
xdata	SEGMENT
$chain$7$deflateInit2_ DD 021H
	DD	imagerel $LN22
	DD	imagerel $LN22+91
	DD	imagerel $unwind$deflateInit2_
xdata	ENDS
;	COMDAT xdata
xdata	SEGMENT
$chain$6$deflateInit2_ DD 040021H
	DD	0cf400H
	DD	0bc400H
	DD	imagerel $LN22
	DD	imagerel $LN22+91
	DD	imagerel $unwind$deflateInit2_
xdata	ENDS
;	COMDAT xdata
xdata	SEGMENT
$chain$5$deflateInit2_ DD 060021H
	DD	0cf400H
	DD	0bc400H
	DD	0a6400H
	DD	imagerel $LN22
	DD	imagerel $LN22+91
	DD	imagerel $unwind$deflateInit2_
xdata	ENDS
;	COMDAT xdata
xdata	SEGMENT
$chain$3$deflateInit2_ DD 021H
	DD	imagerel $LN22+91
	DD	imagerel $LN22+271
	DD	imagerel $chain$1$deflateInit2_
xdata	ENDS
;	COMDAT xdata
xdata	SEGMENT
$chain$2$deflateInit2_ DD 020521H
	DD	0a6405H
	DD	imagerel $LN22+91
	DD	imagerel $LN22+271
	DD	imagerel $chain$1$deflateInit2_
xdata	ENDS
;	COMDAT xdata
xdata	SEGMENT
$chain$1$deflateInit2_ DD 046421H
	DD	0bc464H
	DD	0cf405H
	DD	imagerel $LN22
	DD	imagerel $LN22+91
	DD	imagerel $unwind$deflateInit2_
xdata	ENDS
;	COMDAT xdata
xdata	SEGMENT
$unwind$deflateInit2_ DD 060c01H
	DD	0e008320cH
	DD	07004d006H
	DD	030025003H
; Function compile flags: /Ogtpy
xdata	ENDS
;	COMDAT deflateInit2_
_TEXT	SEGMENT
strm$ = 80
level$ = 88
method$ = 96
windowBits$ = 104
memLevel$ = 112
strategy$ = 120
version$ = 128
stream_size$ = 136
deflateInit2_ PROC					; COMDAT

; 223  : {

$LN22:
  00000	40 53		 push	 rbx
  00002	55		 push	 rbp
  00003	57		 push	 rdi
  00004	41 55		 push	 r13
  00006	41 56		 push	 r14
  00008	48 83 ec 20	 sub	 rsp, 32			; 00000020H

; 224  :     deflate_state *s;
; 225  :     int wrap = 1;
; 226  :     static const char my_version[] = ZLIB_VERSION;
; 227  : 
; 228  :     ushf *overlay;
; 229  :     /* We overlay pending_buf and d_buf+l_buf. This works since the average
; 230  :      * output size for (length,distance) codes is <= 24 bits.
; 231  :      */
; 232  : 
; 233  :     if (version == Z_NULL || version[0] != my_version[0] ||
; 234  :         stream_size != sizeof(z_stream)) {

  0000c	48 8b 84 24 80
	00 00 00	 mov	 rax, QWORD PTR version$[rsp]
  00014	41 be 01 00 00
	00		 mov	 r14d, 1
  0001a	41 8b f9	 mov	 edi, r9d
  0001d	8b ea		 mov	 ebp, edx
  0001f	48 8b d9	 mov	 rbx, rcx
  00022	45 8b ee	 mov	 r13d, r14d
  00025	48 85 c0	 test	 rax, rax
  00028	0f 84 47 02 00
	00		 je	 $LN14@deflateIni
  0002e	80 38 31	 cmp	 BYTE PTR [rax], 49	; 00000031H
  00031	0f 85 3e 02 00
	00		 jne	 $LN14@deflateIni
  00037	83 bc 24 88 00
	00 00 58	 cmp	 DWORD PTR stream_size$[rsp], 88 ; 00000058H
  0003f	0f 85 30 02 00
	00		 jne	 $LN14@deflateIni

; 236  :     }
; 237  :     if (strm == Z_NULL) return Z_STREAM_ERROR;

  00045	48 85 c9	 test	 rcx, rcx
  00048	75 0f		 jne	 SHORT $LN13@deflateIni
  0004a	8d 41 fe	 lea	 eax, QWORD PTR [rcx-2]

; 320  : }

  0004d	48 83 c4 20	 add	 rsp, 32			; 00000020H
  00051	41 5e		 pop	 r14
  00053	41 5d		 pop	 r13
  00055	5f		 pop	 rdi
  00056	5d		 pop	 rbp
  00057	5b		 pop	 rbx
  00058	c3		 ret	 0
$LN13@deflateIni:

; 238  : 
; 239  :     strm->msg = Z_NULL;

  00059	33 d2		 xor	 edx, edx
  0005b	4c 89 7c 24 60	 mov	 QWORD PTR [rsp+96], r15
  00060	48 89 51 20	 mov	 QWORD PTR [rcx+32], rdx

; 240  :     if (strm->zalloc == (alloc_func)0) {

  00064	48 39 51 30	 cmp	 QWORD PTR [rcx+48], rdx
  00068	75 0f		 jne	 SHORT $LN12@deflateIni

; 241  : #ifdef Z_SOLO
; 242  :         return Z_STREAM_ERROR;
; 243  : #else
; 244  :         strm->zalloc = zcalloc;

  0006a	48 8d 05 00 00
	00 00		 lea	 rax, OFFSET FLAT:zcalloc

; 245  :         strm->opaque = (voidpf)0;

  00071	48 89 51 40	 mov	 QWORD PTR [rcx+64], rdx
  00075	48 89 41 30	 mov	 QWORD PTR [rcx+48], rax
$LN12@deflateIni:

; 246  : #endif
; 247  :     }
; 248  :     if (strm->zfree == (free_func)0)

  00079	48 8b 41 38	 mov	 rax, QWORD PTR [rcx+56]
  0007d	48 8d 0d 00 00
	00 00		 lea	 rcx, OFFSET FLAT:zcfree
  00084	48 3b c2	 cmp	 rax, rdx
  00087	48 0f 44 c1	 cmove	 rax, rcx

; 249  : #ifdef Z_SOLO
; 250  :         return Z_STREAM_ERROR;
; 251  : #else
; 252  :         strm->zfree = zcfree;
; 253  : #endif
; 254  : 
; 255  : #ifdef FASTEST
; 256  :     if (level != 0) level = 1;
; 257  : #else
; 258  :     if (level == Z_DEFAULT_COMPRESSION) level = 6;

  0008b	83 fd ff	 cmp	 ebp, -1
  0008e	48 89 43 38	 mov	 QWORD PTR [rbx+56], rax
  00092	b8 06 00 00 00	 mov	 eax, 6
  00097	0f 44 e8	 cmove	 ebp, eax

; 259  : #endif
; 260  : 
; 261  :     if (windowBits < 0) { /* suppress zlib wrapper */

  0009a	45 85 c9	 test	 r9d, r9d
  0009d	79 07		 jns	 SHORT $LN9@deflateIni

; 262  :         wrap = 0;

  0009f	44 8b ea	 mov	 r13d, edx

; 263  :         windowBits = -windowBits;

  000a2	f7 df		 neg	 edi
  000a4	eb 0f		 jmp	 SHORT $LN7@deflateIni
$LN9@deflateIni:

; 264  :     }
; 265  : #ifdef GZIP
; 266  :     else if (windowBits > 15) {

  000a6	41 83 f9 0f	 cmp	 r9d, 15
  000aa	7e 09		 jle	 SHORT $LN7@deflateIni

; 267  :         wrap = 2;       /* write gzip wrapper instead */

  000ac	41 bd 02 00 00
	00		 mov	 r13d, 2

; 268  :         windowBits -= 16;

  000b2	83 ef 10	 sub	 edi, 16
$LN7@deflateIni:

; 269  :     }
; 270  : #endif
; 271  :     if (memLevel < 1 || memLevel > MAX_MEM_LEVEL || method != Z_DEFLATED ||
; 272  :         windowBits < 8 || windowBits > 15 || level < 0 || level > 9 ||
; 273  :         strategy < 0 || strategy > Z_FIXED) {

  000b5	44 8b 7c 24 70	 mov	 r15d, DWORD PTR memLevel$[rsp]
  000ba	4c 89 64 24 58	 mov	 QWORD PTR [rsp+88], r12
  000bf	41 8d 47 ff	 lea	 eax, DWORD PTR [r15-1]
  000c3	83 f8 08	 cmp	 eax, 8
  000c6	0f 87 a2 01 00
	00		 ja	 $LN5@deflateIni
  000cc	41 83 f8 08	 cmp	 r8d, 8
  000d0	0f 85 98 01 00
	00		 jne	 $LN5@deflateIni
  000d6	8d 47 f8	 lea	 eax, DWORD PTR [rdi-8]
  000d9	83 f8 07	 cmp	 eax, 7
  000dc	0f 87 8c 01 00
	00		 ja	 $LN5@deflateIni
  000e2	83 fd 09	 cmp	 ebp, 9
  000e5	0f 87 83 01 00
	00		 ja	 $LN5@deflateIni
  000eb	44 8b 64 24 78	 mov	 r12d, DWORD PTR strategy$[rsp]
  000f0	41 83 fc 04	 cmp	 r12d, 4
  000f4	0f 87 74 01 00
	00		 ja	 $LN5@deflateIni

; 275  :     }
; 276  :     if (windowBits == 8) windowBits = 9;  /* until 256-byte window bug fixed */
; 277  :     s = (deflate_state *) ZALLOC(strm, 1, sizeof(deflate_state));

  000fa	48 8b 4b 40	 mov	 rcx, QWORD PTR [rbx+64]
  000fe	41 3b f8	 cmp	 edi, r8d
  00101	b8 09 00 00 00	 mov	 eax, 9
  00106	41 b8 20 17 00
	00		 mov	 r8d, 5920		; 00001720H
  0010c	41 8b d6	 mov	 edx, r14d
  0010f	48 89 74 24 50	 mov	 QWORD PTR [rsp+80], rsi
  00114	0f 44 f8	 cmove	 edi, eax
  00117	ff 53 30	 call	 QWORD PTR [rbx+48]
  0011a	48 8b f0	 mov	 rsi, rax

; 278  :     if (s == Z_NULL) return Z_MEM_ERROR;

  0011d	48 85 c0	 test	 rax, rax
  00120	0f 84 41 01 00
	00		 je	 $LN21@deflateIni

; 279  :     strm->state = (struct internal_state FAR *)s;

  00126	48 89 43 28	 mov	 QWORD PTR [rbx+40], rax

; 280  :     s->strm = strm;
; 281  : 
; 282  :     s->wrap = wrap;

  0012a	44 89 68 2c	 mov	 DWORD PTR [rax+44], r13d
  0012e	48 89 18	 mov	 QWORD PTR [rax], rbx

; 283  :     s->gzhead = Z_NULL;
; 284  :     s->w_bits = windowBits;

  00131	89 78 48	 mov	 DWORD PTR [rax+72], edi

; 285  :     s->w_size = 1 << s->w_bits;

  00134	8b cf		 mov	 ecx, edi
  00136	45 33 ed	 xor	 r13d, r13d
  00139	4c 89 68 30	 mov	 QWORD PTR [rax+48], r13
  0013d	45 8b ce	 mov	 r9d, r14d

; 286  :     s->w_mask = s->w_size - 1;
; 287  : 
; 288  :     s->hash_bits = memLevel + 7;
; 289  :     s->hash_size = 1 << s->hash_bits;
; 290  :     s->hash_mask = s->hash_size - 1;
; 291  :     s->hash_shift =  ((s->hash_bits+MIN_MATCH-1)/MIN_MATCH);
; 292  : 
; 293  :     s->window = (Bytef *) ZALLOC(strm, s->w_size, 2*sizeof(Byte));

  00140	45 8d 45 02	 lea	 r8d, QWORD PTR [r13+2]
  00144	41 d3 e1	 shl	 r9d, cl
  00147	41 8d 4f 07	 lea	 ecx, DWORD PTR [r15+7]
  0014b	44 89 48 44	 mov	 DWORD PTR [rax+68], r9d
  0014f	41 8d 41 ff	 lea	 eax, DWORD PTR [r9-1]
  00153	89 4e 78	 mov	 DWORD PTR [rsi+120], ecx
  00156	89 46 4c	 mov	 DWORD PTR [rsi+76], eax
  00159	41 8b c6	 mov	 eax, r14d
  0015c	d3 e0		 shl	 eax, cl
  0015e	83 c1 02	 add	 ecx, 2
  00161	89 46 74	 mov	 DWORD PTR [rsi+116], eax
  00164	ff c8		 dec	 eax
  00166	89 46 7c	 mov	 DWORD PTR [rsi+124], eax
  00169	b8 ab aa aa aa	 mov	 eax, -1431655765	; aaaaaaabH
  0016e	f7 e1		 mul	 ecx
  00170	d1 ea		 shr	 edx, 1
  00172	89 96 80 00 00
	00		 mov	 DWORD PTR [rsi+128], edx
  00178	48 8b 4b 40	 mov	 rcx, QWORD PTR [rbx+64]
  0017c	41 8b d1	 mov	 edx, r9d
  0017f	ff 53 30	 call	 QWORD PTR [rbx+48]

; 294  :     s->prev   = (Posf *)  ZALLOC(strm, s->w_size, sizeof(Pos));

  00182	8b 56 44	 mov	 edx, DWORD PTR [rsi+68]
  00185	45 8d 45 02	 lea	 r8d, QWORD PTR [r13+2]
  00189	48 89 46 50	 mov	 QWORD PTR [rsi+80], rax
  0018d	48 8b 4b 40	 mov	 rcx, QWORD PTR [rbx+64]
  00191	ff 53 30	 call	 QWORD PTR [rbx+48]

; 295  :     s->head   = (Posf *)  ZALLOC(strm, s->hash_size, sizeof(Pos));

  00194	8b 56 74	 mov	 edx, DWORD PTR [rsi+116]
  00197	45 8d 45 02	 lea	 r8d, QWORD PTR [r13+2]
  0019b	48 89 46 60	 mov	 QWORD PTR [rsi+96], rax
  0019f	48 8b 4b 40	 mov	 rcx, QWORD PTR [rbx+64]
  001a3	ff 53 30	 call	 QWORD PTR [rbx+48]

; 296  : 
; 297  :     s->high_water = 0;      /* nothing written to s->window yet */
; 298  : 
; 299  :     s->lit_bufsize = 1 << (memLevel + 6); /* 16K elements by default */

  001a6	41 8d 4f 06	 lea	 ecx, DWORD PTR [r15+6]
  001aa	44 89 ae 18 17
	00 00		 mov	 DWORD PTR [rsi+5912], r13d
  001b1	41 d3 e6	 shl	 r14d, cl
  001b4	48 89 46 68	 mov	 QWORD PTR [rsi+104], rax

; 300  : 
; 301  :     overlay = (ushf *) ZALLOC(strm, s->lit_bufsize, sizeof(ush)+2);

  001b8	45 8d 45 04	 lea	 r8d, QWORD PTR [r13+4]
  001bc	44 89 b6 f0 16
	00 00		 mov	 DWORD PTR [rsi+5872], r14d
  001c3	48 8b 4b 40	 mov	 rcx, QWORD PTR [rbx+64]
  001c7	41 8b d6	 mov	 edx, r14d
  001ca	ff 53 30	 call	 QWORD PTR [rbx+48]
  001cd	4c 8b d8	 mov	 r11, rax

; 302  :     s->pending_buf = (uchf *) overlay;

  001d0	48 89 46 10	 mov	 QWORD PTR [rsi+16], rax

; 303  :     s->pending_buf_size = (ulg)s->lit_bufsize * (sizeof(ush)+2L);

  001d4	8b 86 f0 16 00
	00		 mov	 eax, DWORD PTR [rsi+5872]
  001da	8d 0c 85 00 00
	00 00		 lea	 ecx, DWORD PTR [rax*4]
  001e1	89 4e 18	 mov	 DWORD PTR [rsi+24], ecx

; 304  : 
; 305  :     if (s->window == Z_NULL || s->prev == Z_NULL || s->head == Z_NULL ||
; 306  :         s->pending_buf == Z_NULL) {

  001e4	4c 39 6e 50	 cmp	 QWORD PTR [rsi+80], r13
  001e8	74 63		 je	 SHORT $LN1@deflateIni
  001ea	4c 39 6e 60	 cmp	 QWORD PTR [rsi+96], r13
  001ee	74 5d		 je	 SHORT $LN1@deflateIni
  001f0	4c 39 6e 68	 cmp	 QWORD PTR [rsi+104], r13
  001f4	74 57		 je	 SHORT $LN1@deflateIni
  001f6	4d 85 db	 test	 r11, r11
  001f9	74 52		 je	 SHORT $LN1@deflateIni

; 311  :     }
; 312  :     s->d_buf = overlay + s->lit_bufsize/sizeof(ush);

  001fb	8b c8		 mov	 ecx, eax
  001fd	48 d1 e8	 shr	 rax, 1

; 313  :     s->l_buf = s->pending_buf + (1+sizeof(ush))*s->lit_bufsize;
; 314  : 
; 315  :     s->level = level;

  00200	89 ae ac 00 00
	00		 mov	 DWORD PTR [rsi+172], ebp
  00206	49 8d 04 43	 lea	 rax, QWORD PTR [r11+rax*2]

; 316  :     s->strategy = strategy;

  0020a	44 89 a6 b0 00
	00 00		 mov	 DWORD PTR [rsi+176], r12d

; 317  :     s->method = (Byte)method;

  00211	c6 46 3c 08	 mov	 BYTE PTR [rsi+60], 8
  00215	48 89 86 f8 16
	00 00		 mov	 QWORD PTR [rsi+5880], rax
  0021c	49 8d 04 4b	 lea	 rax, QWORD PTR [r11+rcx*2]
  00220	48 03 c8	 add	 rcx, rax
  00223	48 89 8e e8 16
	00 00		 mov	 QWORD PTR [rsi+5864], rcx

; 318  : 
; 319  :     return deflateReset(strm);

  0022a	48 8b cb	 mov	 rcx, rbx
  0022d	e8 00 00 00 00	 call	 deflateReset
$LN20@deflateIni:
  00232	48 8b 74 24 50	 mov	 rsi, QWORD PTR [rsp+80]
$LN19@deflateIni:
  00237	4c 8b 64 24 58	 mov	 r12, QWORD PTR [rsp+88]
  0023c	4c 8b 7c 24 60	 mov	 r15, QWORD PTR [rsp+96]

; 320  : }

  00241	48 83 c4 20	 add	 rsp, 32			; 00000020H
  00245	41 5e		 pop	 r14
  00247	41 5d		 pop	 r13
  00249	5f		 pop	 rdi
  0024a	5d		 pop	 rbp
  0024b	5b		 pop	 rbx
  0024c	c3		 ret	 0
$LN1@deflateIni:

; 307  :         s->status = FINISH_STATE;
; 308  :         strm->msg = (char*)ERR_MSG(Z_MEM_ERROR);

  0024d	48 8d 05 00 00
	00 00		 lea	 rax, OFFSET FLAT:??_C@_0BE@OGGJBMCE@insufficient?5memory?$AA@
  00254	c7 46 08 9a 02
	00 00		 mov	 DWORD PTR [rsi+8], 666	; 0000029aH

; 309  :         deflateEnd (strm);

  0025b	48 8b cb	 mov	 rcx, rbx
  0025e	48 89 43 20	 mov	 QWORD PTR [rbx+32], rax
  00262	e8 00 00 00 00	 call	 deflateEnd
$LN21@deflateIni:

; 310  :         return Z_MEM_ERROR;

  00267	b8 fc ff ff ff	 mov	 eax, -4
  0026c	eb c4		 jmp	 SHORT $LN20@deflateIni
$LN5@deflateIni:

; 274  :         return Z_STREAM_ERROR;

  0026e	b8 fe ff ff ff	 mov	 eax, -2
  00273	eb c2		 jmp	 SHORT $LN19@deflateIni
$LN14@deflateIni:

; 235  :         return Z_VERSION_ERROR;

  00275	b8 fa ff ff ff	 mov	 eax, -6

; 320  : }

  0027a	48 83 c4 20	 add	 rsp, 32			; 00000020H
  0027e	41 5e		 pop	 r14
  00280	41 5d		 pop	 r13
  00282	5f		 pop	 rdi
  00283	5d		 pop	 rbp
  00284	5b		 pop	 rbx
  00285	c3		 ret	 0
deflateInit2_ ENDP
_TEXT	ENDS
PUBLIC	deflateInit_
;	COMDAT pdata
pdata	SEGMENT
$pdata$deflateInit_ DD imagerel $LN3
	DD	imagerel $LN3+50
	DD	imagerel $unwind$deflateInit_
pdata	ENDS
;	COMDAT xdata
xdata	SEGMENT
$unwind$deflateInit_ DD 010401H
	DD	08204H
; Function compile flags: /Ogtpy
xdata	ENDS
;	COMDAT deflateInit_
_TEXT	SEGMENT
strm$ = 80
level$ = 88
version$ = 96
stream_size$ = 104
deflateInit_ PROC					; COMDAT

; 206  : {

$LN3:
  00000	48 83 ec 48	 sub	 rsp, 72			; 00000048H

; 207  :     return deflateInit2_(strm, level, Z_DEFLATED, MAX_WBITS, DEF_MEM_LEVEL,
; 208  :                          Z_DEFAULT_STRATEGY, version, stream_size);

  00004	44 89 4c 24 38	 mov	 DWORD PTR [rsp+56], r9d
  00009	4c 89 44 24 30	 mov	 QWORD PTR [rsp+48], r8
  0000e	41 b9 0f 00 00
	00		 mov	 r9d, 15
  00014	45 8d 41 f9	 lea	 r8d, QWORD PTR [r9-7]
  00018	c7 44 24 28 00
	00 00 00	 mov	 DWORD PTR [rsp+40], 0
  00020	c7 44 24 20 08
	00 00 00	 mov	 DWORD PTR [rsp+32], 8
  00028	e8 00 00 00 00	 call	 deflateInit2_

; 209  :     /* To do: ignore strm->next_in if we use it as window */
; 210  : }

  0002d	48 83 c4 48	 add	 rsp, 72			; 00000048H
  00031	c3		 ret	 0
deflateInit_ ENDP
;	COMDAT pdata
pdata	SEGMENT
$pdata$deflate_huff DD imagerel deflate_huff
	DD	imagerel deflate_huff+461
	DD	imagerel $unwind$deflate_huff
pdata	ENDS
;	COMDAT xdata
xdata	SEGMENT
$unwind$deflate_huff DD 060f01H
	DD	07640fH
	DD	06340fH
	DD	0700b320fH
; Function compile flags: /Ogtpy
xdata	ENDS
;	COMDAT deflate_huff
_TEXT	SEGMENT
s$ = 48
flush$ = 56
deflate_huff PROC					; COMDAT

; 1935 : {

  00000	48 89 5c 24 08	 mov	 QWORD PTR [rsp+8], rbx
  00005	48 89 74 24 10	 mov	 QWORD PTR [rsp+16], rsi
  0000a	57		 push	 rdi
  0000b	48 83 ec 20	 sub	 rsp, 32			; 00000020H
  0000f	8b f2		 mov	 esi, edx
  00011	48 8b d9	 mov	 rbx, rcx
  00014	33 ff		 xor	 edi, edi
$LL11@deflate_hu:

; 1936 :     int bflush;             /* set if current block must be flushed */
; 1937 : 
; 1938 :     for (;;) {
; 1939 :         /* Make sure that we have a literal to write. */
; 1940 :         if (s->lookahead == 0) {

  00016	39 bb 9c 00 00
	00		 cmp	 DWORD PTR [rbx+156], edi
  0001c	75 14		 jne	 SHORT $LN8@deflate_hu

; 1941 :             fill_window(s);

  0001e	48 8b cb	 mov	 rcx, rbx
  00021	e8 00 00 00 00	 call	 fill_window

; 1942 :             if (s->lookahead == 0) {

  00026	39 bb 9c 00 00
	00		 cmp	 DWORD PTR [rbx+156], edi
  0002c	0f 84 c2 00 00
	00		 je	 $LN22@deflate_hu
$LN8@deflate_hu:

; 1945 :                 break;      /* flush the current block */
; 1946 :             }
; 1947 :         }
; 1948 : 
; 1949 :         /* Output a literal byte */
; 1950 :         s->match_length = 0;
; 1951 :         Tracevv((stderr,"%c", s->window[s->strstart]));
; 1952 :         _tr_tally_lit (s, s->window[s->strstart], bflush);

  00032	8b 8b 94 00 00
	00		 mov	 ecx, DWORD PTR [rbx+148]
  00038	48 8b 43 50	 mov	 rax, QWORD PTR [rbx+80]
  0003c	89 bb 88 00 00
	00		 mov	 DWORD PTR [rbx+136], edi
  00042	0f b6 14 01	 movzx	 edx, BYTE PTR [rcx+rax]
  00046	8b 8b f4 16 00
	00		 mov	 ecx, DWORD PTR [rbx+5876]
  0004c	48 8b 83 f8 16
	00 00		 mov	 rax, QWORD PTR [rbx+5880]
  00053	66 89 3c 48	 mov	 WORD PTR [rax+rcx*2], di
  00057	8b 8b f4 16 00
	00		 mov	 ecx, DWORD PTR [rbx+5876]
  0005d	48 8b 83 e8 16
	00 00		 mov	 rax, QWORD PTR [rbx+5864]
  00064	88 14 01	 mov	 BYTE PTR [rcx+rax], dl
  00067	ff 83 f4 16 00
	00		 inc	 DWORD PTR [rbx+5876]
  0006d	66 ff 84 93 bc
	00 00 00	 inc	 WORD PTR [rbx+rdx*4+188]

; 1953 :         s->lookahead--;
; 1954 :         s->strstart++;

  00075	ff 83 94 00 00
	00		 inc	 DWORD PTR [rbx+148]
  0007b	8b 83 f0 16 00
	00		 mov	 eax, DWORD PTR [rbx+5872]
  00081	ff 8b 9c 00 00
	00		 dec	 DWORD PTR [rbx+156]
  00087	44 8b 83 94 00
	00 00		 mov	 r8d, DWORD PTR [rbx+148]
  0008e	ff c8		 dec	 eax
  00090	39 83 f4 16 00
	00		 cmp	 DWORD PTR [rbx+5876], eax

; 1955 :         if (bflush) FLUSH_BLOCK(s, 0);

  00096	0f 85 7a ff ff
	ff		 jne	 $LL11@deflate_hu
  0009c	8b 83 84 00 00
	00		 mov	 eax, DWORD PTR [rbx+132]
  000a2	85 c0		 test	 eax, eax
  000a4	78 08		 js	 SHORT $LN14@deflate_hu
  000a6	8b d0		 mov	 edx, eax
  000a8	48 03 53 50	 add	 rdx, QWORD PTR [rbx+80]
  000ac	eb 03		 jmp	 SHORT $LN15@deflate_hu
$LN14@deflate_hu:
  000ae	48 8b d7	 mov	 rdx, rdi
$LN15@deflate_hu:
  000b1	44 2b c0	 sub	 r8d, eax
  000b4	45 33 c9	 xor	 r9d, r9d
  000b7	48 8b cb	 mov	 rcx, rbx
  000ba	e8 00 00 00 00	 call	 _tr_flush_block
  000bf	44 8b 9b 94 00
	00 00		 mov	 r11d, DWORD PTR [rbx+148]
  000c6	48 8b 0b	 mov	 rcx, QWORD PTR [rbx]
  000c9	44 89 9b 84 00
	00 00		 mov	 DWORD PTR [rbx+132], r11d
  000d0	e8 00 00 00 00	 call	 flush_pending
  000d5	4c 8b 1b	 mov	 r11, QWORD PTR [rbx]
  000d8	41 39 7b 18	 cmp	 DWORD PTR [r11+24], edi
  000dc	0f 85 34 ff ff
	ff		 jne	 $LL11@deflate_hu
$LN23@deflate_hu:
  000e2	33 c0		 xor	 eax, eax

; 1964 :     return block_done;
; 1965 : }

  000e4	48 8b 5c 24 30	 mov	 rbx, QWORD PTR [rsp+48]
  000e9	48 8b 74 24 38	 mov	 rsi, QWORD PTR [rsp+56]
  000ee	48 83 c4 20	 add	 rsp, 32			; 00000020H
  000f2	5f		 pop	 rdi
  000f3	c3		 ret	 0
$LN22@deflate_hu:

; 1943 :                 if (flush == Z_NO_FLUSH)

  000f4	85 f6		 test	 esi, esi

; 1944 :                     return need_more;

  000f6	74 ea		 je	 SHORT $LN23@deflate_hu

; 1956 :     }
; 1957 :     s->insert = 0;

  000f8	89 bb 0c 17 00
	00		 mov	 DWORD PTR [rbx+5900], edi

; 1958 :     if (flush == Z_FINISH) {

  000fe	83 fe 04	 cmp	 esi, 4
  00101	75 61		 jne	 SHORT $LN4@deflate_hu

; 1959 :         FLUSH_BLOCK(s, 1);

  00103	8b 83 84 00 00
	00		 mov	 eax, DWORD PTR [rbx+132]
  00109	85 c0		 test	 eax, eax
  0010b	78 08		 js	 SHORT $LN16@deflate_hu
  0010d	8b d0		 mov	 edx, eax
  0010f	48 03 53 50	 add	 rdx, QWORD PTR [rbx+80]
  00113	eb 03		 jmp	 SHORT $LN17@deflate_hu
$LN16@deflate_hu:
  00115	48 8b d7	 mov	 rdx, rdi
$LN17@deflate_hu:
  00118	44 8b 83 94 00
	00 00		 mov	 r8d, DWORD PTR [rbx+148]
  0011f	41 b9 01 00 00
	00		 mov	 r9d, 1
  00125	48 8b cb	 mov	 rcx, rbx
  00128	44 2b c0	 sub	 r8d, eax
  0012b	e8 00 00 00 00	 call	 _tr_flush_block
  00130	44 8b 9b 94 00
	00 00		 mov	 r11d, DWORD PTR [rbx+148]
  00137	48 8b 0b	 mov	 rcx, QWORD PTR [rbx]
  0013a	44 89 9b 84 00
	00 00		 mov	 DWORD PTR [rbx+132], r11d
  00141	e8 00 00 00 00	 call	 flush_pending
  00146	4c 8b 1b	 mov	 r11, QWORD PTR [rbx]
  00149	41 39 7b 18	 cmp	 DWORD PTR [r11+24], edi
  0014d	40 0f 95 c7	 setne	 dil
  00151	8d 47 02	 lea	 eax, DWORD PTR [rdi+2]

; 1964 :     return block_done;
; 1965 : }

  00154	48 8b 5c 24 30	 mov	 rbx, QWORD PTR [rsp+48]
  00159	48 8b 74 24 38	 mov	 rsi, QWORD PTR [rsp+56]
  0015e	48 83 c4 20	 add	 rsp, 32			; 00000020H
  00162	5f		 pop	 rdi
  00163	c3		 ret	 0
$LN4@deflate_hu:

; 1960 :         return finish_done;
; 1961 :     }
; 1962 :     if (s->last_lit)

  00164	39 bb f4 16 00
	00		 cmp	 DWORD PTR [rbx+5876], edi
  0016a	74 4c		 je	 SHORT $LN1@deflate_hu

; 1963 :         FLUSH_BLOCK(s, 0);

  0016c	8b 83 84 00 00
	00		 mov	 eax, DWORD PTR [rbx+132]
  00172	85 c0		 test	 eax, eax
  00174	78 06		 js	 SHORT $LN18@deflate_hu
  00176	8b f8		 mov	 edi, eax
  00178	48 03 7b 50	 add	 rdi, QWORD PTR [rbx+80]
$LN18@deflate_hu:
  0017c	44 8b 83 94 00
	00 00		 mov	 r8d, DWORD PTR [rbx+148]
  00183	45 33 c9	 xor	 r9d, r9d
  00186	48 8b d7	 mov	 rdx, rdi
  00189	44 2b c0	 sub	 r8d, eax
  0018c	48 8b cb	 mov	 rcx, rbx
  0018f	e8 00 00 00 00	 call	 _tr_flush_block
  00194	44 8b 9b 94 00
	00 00		 mov	 r11d, DWORD PTR [rbx+148]
  0019b	48 8b 0b	 mov	 rcx, QWORD PTR [rbx]
  0019e	44 89 9b 84 00
	00 00		 mov	 DWORD PTR [rbx+132], r11d
  001a5	e8 00 00 00 00	 call	 flush_pending
  001aa	4c 8b 1b	 mov	 r11, QWORD PTR [rbx]
  001ad	41 83 7b 18 00	 cmp	 DWORD PTR [r11+24], 0
  001b2	0f 84 2a ff ff
	ff		 je	 $LN23@deflate_hu
$LN1@deflate_hu:

; 1964 :     return block_done;
; 1965 : }

  001b8	48 8b 5c 24 30	 mov	 rbx, QWORD PTR [rsp+48]
  001bd	48 8b 74 24 38	 mov	 rsi, QWORD PTR [rsp+56]
  001c2	b8 01 00 00 00	 mov	 eax, 1
  001c7	48 83 c4 20	 add	 rsp, 32			; 00000020H
  001cb	5f		 pop	 rdi
  001cc	c3		 ret	 0
deflate_huff ENDP
_TEXT	ENDS
;	COMDAT pdata
pdata	SEGMENT
$pdata$deflate_rle DD imagerel deflate_rle
	DD	imagerel deflate_rle+842
	DD	imagerel $unwind$deflate_rle
pdata	ENDS
;	COMDAT xdata
xdata	SEGMENT
$unwind$deflate_rle DD 0a1a01H
	DD	09741aH
	DD	08641aH
	DD	07541aH
	DD	06341aH
	DD	0c016321aH
; Function compile flags: /Ogtpy
xdata	ENDS
;	COMDAT deflate_rle
_TEXT	SEGMENT
s$ = 48
flush$ = 56
deflate_rle PROC					; COMDAT

; 1862 : {

  00000	48 89 5c 24 08	 mov	 QWORD PTR [rsp+8], rbx
  00005	48 89 6c 24 10	 mov	 QWORD PTR [rsp+16], rbp
  0000a	48 89 74 24 18	 mov	 QWORD PTR [rsp+24], rsi
  0000f	48 89 7c 24 20	 mov	 QWORD PTR [rsp+32], rdi
  00014	41 54		 push	 r12
  00016	48 83 ec 20	 sub	 rsp, 32			; 00000020H
  0001a	33 ff		 xor	 edi, edi
  0001c	8b f2		 mov	 esi, edx
  0001e	48 8b d9	 mov	 rbx, rcx
  00021	8d 6f 01	 lea	 ebp, QWORD PTR [rdi+1]
  00024	4c 8d 25 00 00
	00 00		 lea	 r12, OFFSET FLAT:_length_code
  0002b	0f 1f 44 00 00	 npad	 5
$LL20@deflate_rl:

; 1863 :     int bflush;             /* set if current block must be flushed */
; 1864 :     uInt prev;              /* byte at distance one to match */
; 1865 :     Bytef *scan, *strend;   /* scan goes up to strend for length of run */
; 1866 : 
; 1867 :     for (;;) {
; 1868 :         /* Make sure that we always have enough lookahead, except
; 1869 :          * at the end of the input file. We need MAX_MATCH bytes
; 1870 :          * for the longest run, plus one for the unrolled loop.
; 1871 :          */
; 1872 :         if (s->lookahead <= MAX_MATCH) {

  00030	44 8b 83 9c 00
	00 00		 mov	 r8d, DWORD PTR [rbx+156]
  00037	41 81 f8 02 01
	00 00		 cmp	 r8d, 258		; 00000102H
  0003e	77 29		 ja	 SHORT $LN16@deflate_rl

; 1873 :             fill_window(s);

  00040	48 8b cb	 mov	 rcx, rbx
  00043	e8 00 00 00 00	 call	 fill_window

; 1874 :             if (s->lookahead <= MAX_MATCH && flush == Z_NO_FLUSH) {

  00048	44 8b 83 9c 00
	00 00		 mov	 r8d, DWORD PTR [rbx+156]
  0004f	41 81 f8 02 01
	00 00		 cmp	 r8d, 258		; 00000102H
  00056	77 08		 ja	 SHORT $LN17@deflate_rl
  00058	85 f6		 test	 esi, esi
  0005a	0f 84 17 02 00
	00		 je	 $LN36@deflate_rl
$LN17@deflate_rl:

; 1875 :                 return need_more;
; 1876 :             }
; 1877 :             if (s->lookahead == 0) break; /* flush the current block */

  00060	45 85 c0	 test	 r8d, r8d
  00063	0f 84 2b 02 00
	00		 je	 $LN35@deflate_rl
$LN16@deflate_rl:

; 1878 :         }
; 1879 : 
; 1880 :         /* See how many times the previous byte repeats */
; 1881 :         s->match_length = 0;

  00069	89 bb 88 00 00
	00		 mov	 DWORD PTR [rbx+136], edi

; 1882 :         if (s->lookahead >= MIN_MATCH && s->strstart > 0) {

  0006f	41 83 f8 03	 cmp	 r8d, 3
  00073	0f 82 cf 00 00
	00		 jb	 $LN9@deflate_rl
  00079	8b 83 94 00 00
	00		 mov	 eax, DWORD PTR [rbx+148]
  0007f	85 c0		 test	 eax, eax
  00081	0f 84 c1 00 00
	00		 je	 $LN9@deflate_rl

; 1883 :             scan = s->window + s->strstart - 1;

  00087	4c 8b 53 50	 mov	 r10, QWORD PTR [rbx+80]
  0008b	44 8b c8	 mov	 r9d, eax

; 1884 :             prev = *scan;

  0008e	41 0f b6 54 02
	ff		 movzx	 edx, BYTE PTR [r10+rax-1]
  00094	49 8d 4c 02 ff	 lea	 rcx, QWORD PTR [r10+rax-1]

; 1885 :             if (prev == *++scan && prev == *++scan && prev == *++scan) {

  00099	41 0f b6 04 02	 movzx	 eax, BYTE PTR [r10+rax]
  0009e	3b d0		 cmp	 edx, eax
  000a0	0f 85 a2 00 00
	00		 jne	 $LN9@deflate_rl
  000a6	0f b6 41 02	 movzx	 eax, BYTE PTR [rcx+2]
  000aa	3b d0		 cmp	 edx, eax
  000ac	0f 85 96 00 00
	00		 jne	 $LN9@deflate_rl
  000b2	0f b6 41 03	 movzx	 eax, BYTE PTR [rcx+3]
  000b6	48 83 c1 03	 add	 rcx, 3
  000ba	3b d0		 cmp	 edx, eax
  000bc	0f 85 86 00 00
	00		 jne	 $LN9@deflate_rl

; 1886 :                 strend = s->window + s->strstart + MAX_MATCH;

  000c2	4f 8d 9c 0a 02
	01 00 00	 lea	 r11, QWORD PTR [r10+r9+258]
  000ca	66 0f 1f 44 00
	00		 npad	 6
$LL13@deflate_rl:

; 1887 :                 do {
; 1888 :                 } while (prev == *++scan && prev == *++scan &&
; 1889 :                          prev == *++scan && prev == *++scan &&
; 1890 :                          prev == *++scan && prev == *++scan &&
; 1891 :                          prev == *++scan && prev == *++scan &&
; 1892 :                          scan < strend);

  000d0	0f b6 41 01	 movzx	 eax, BYTE PTR [rcx+1]
  000d4	48 ff c1	 inc	 rcx
  000d7	3b d0		 cmp	 edx, eax
  000d9	75 52		 jne	 SHORT $LN10@deflate_rl
  000db	0f b6 41 01	 movzx	 eax, BYTE PTR [rcx+1]
  000df	48 ff c1	 inc	 rcx
  000e2	3b d0		 cmp	 edx, eax
  000e4	75 47		 jne	 SHORT $LN10@deflate_rl
  000e6	0f b6 41 01	 movzx	 eax, BYTE PTR [rcx+1]
  000ea	48 ff c1	 inc	 rcx
  000ed	3b d0		 cmp	 edx, eax
  000ef	75 3c		 jne	 SHORT $LN10@deflate_rl
  000f1	0f b6 41 01	 movzx	 eax, BYTE PTR [rcx+1]
  000f5	48 ff c1	 inc	 rcx
  000f8	3b d0		 cmp	 edx, eax
  000fa	75 31		 jne	 SHORT $LN10@deflate_rl
  000fc	0f b6 41 01	 movzx	 eax, BYTE PTR [rcx+1]
  00100	48 ff c1	 inc	 rcx
  00103	3b d0		 cmp	 edx, eax
  00105	75 26		 jne	 SHORT $LN10@deflate_rl
  00107	0f b6 41 01	 movzx	 eax, BYTE PTR [rcx+1]
  0010b	48 ff c1	 inc	 rcx
  0010e	3b d0		 cmp	 edx, eax
  00110	75 1b		 jne	 SHORT $LN10@deflate_rl
  00112	0f b6 41 01	 movzx	 eax, BYTE PTR [rcx+1]
  00116	48 ff c1	 inc	 rcx
  00119	3b d0		 cmp	 edx, eax
  0011b	75 10		 jne	 SHORT $LN10@deflate_rl
  0011d	0f b6 41 01	 movzx	 eax, BYTE PTR [rcx+1]
  00121	48 ff c1	 inc	 rcx
  00124	3b d0		 cmp	 edx, eax
  00126	75 05		 jne	 SHORT $LN10@deflate_rl
  00128	49 3b cb	 cmp	 rcx, r11
  0012b	72 a3		 jb	 SHORT $LL13@deflate_rl
$LN10@deflate_rl:

; 1893 :                 s->match_length = MAX_MATCH - (int)(strend - scan);

  0012d	41 2b cb	 sub	 ecx, r11d
  00130	8d 81 02 01 00
	00		 lea	 eax, DWORD PTR [rcx+258]
  00136	89 83 88 00 00
	00		 mov	 DWORD PTR [rbx+136], eax

; 1894 :                 if (s->match_length > s->lookahead)

  0013c	41 3b c0	 cmp	 eax, r8d
  0013f	76 07		 jbe	 SHORT $LN9@deflate_rl

; 1895 :                     s->match_length = s->lookahead;

  00141	44 89 83 88 00
	00 00		 mov	 DWORD PTR [rbx+136], r8d
$LN9@deflate_rl:

; 1896 :             }
; 1897 :             Assert(scan <= s->window+(uInt)(s->window_size-1), "wild scan");
; 1898 :         }
; 1899 : 
; 1900 :         /* Emit match if have run of MIN_MATCH or longer, else emit literal */
; 1901 :         if (s->match_length >= MIN_MATCH) {

  00148	83 bb 88 00 00
	00 03		 cmp	 DWORD PTR [rbx+136], 3
  0014f	72 75		 jb	 SHORT $LN8@deflate_rl

; 1902 :             check_match(s, s->strstart, s->strstart - 1, s->match_length);
; 1903 : 
; 1904 :             _tr_tally_dist(s, 1, s->match_length - MIN_MATCH, bflush);

  00151	8b 8b f4 16 00
	00		 mov	 ecx, DWORD PTR [rbx+5876]
  00157	0f b6 93 88 00
	00 00		 movzx	 edx, BYTE PTR [rbx+136]
  0015e	48 8b 83 f8 16
	00 00		 mov	 rax, QWORD PTR [rbx+5880]
  00165	66 89 2c 48	 mov	 WORD PTR [rax+rcx*2], bp
  00169	8b 8b f4 16 00
	00		 mov	 ecx, DWORD PTR [rbx+5876]
  0016f	48 8b 83 e8 16
	00 00		 mov	 rax, QWORD PTR [rbx+5864]
  00176	80 ea 03	 sub	 dl, 3
  00179	88 14 01	 mov	 BYTE PTR [rcx+rax], dl
  0017c	ff 83 f4 16 00
	00		 inc	 DWORD PTR [rbx+5876]
  00182	0f b6 c2	 movzx	 eax, dl
  00185	42 0f b6 0c 20	 movzx	 ecx, BYTE PTR [rax+r12]
  0018a	66 ff 84 8b c0
	04 00 00	 inc	 WORD PTR [rbx+rcx*4+1216]
  00192	66 ff 83 b0 09
	00 00		 inc	 WORD PTR [rbx+2480]
  00199	8b 83 f0 16 00
	00		 mov	 eax, DWORD PTR [rbx+5872]
  0019f	ff c8		 dec	 eax
  001a1	8b cf		 mov	 ecx, edi
  001a3	39 83 f4 16 00
	00		 cmp	 DWORD PTR [rbx+5876], eax

; 1905 : 
; 1906 :             s->lookahead -= s->match_length;

  001a9	8b 83 88 00 00
	00		 mov	 eax, DWORD PTR [rbx+136]

; 1907 :             s->strstart += s->match_length;
; 1908 :             s->match_length = 0;

  001af	89 bb 88 00 00
	00		 mov	 DWORD PTR [rbx+136], edi
  001b5	0f 94 c1	 sete	 cl
  001b8	29 83 9c 00 00
	00		 sub	 DWORD PTR [rbx+156], eax
  001be	01 83 94 00 00
	00		 add	 DWORD PTR [rbx+148], eax

; 1909 :         } else {

  001c4	eb 5c		 jmp	 SHORT $LN7@deflate_rl
$LN8@deflate_rl:

; 1910 :             /* No match, output a literal byte */
; 1911 :             Tracevv((stderr,"%c", s->window[s->strstart]));
; 1912 :             _tr_tally_lit (s, s->window[s->strstart], bflush);

  001c6	8b 8b 94 00 00
	00		 mov	 ecx, DWORD PTR [rbx+148]
  001cc	48 8b 43 50	 mov	 rax, QWORD PTR [rbx+80]
  001d0	0f b6 14 01	 movzx	 edx, BYTE PTR [rcx+rax]
  001d4	8b 8b f4 16 00
	00		 mov	 ecx, DWORD PTR [rbx+5876]
  001da	48 8b 83 f8 16
	00 00		 mov	 rax, QWORD PTR [rbx+5880]
  001e1	66 89 3c 48	 mov	 WORD PTR [rax+rcx*2], di
  001e5	8b 8b f4 16 00
	00		 mov	 ecx, DWORD PTR [rbx+5876]
  001eb	48 8b 83 e8 16
	00 00		 mov	 rax, QWORD PTR [rbx+5864]
  001f2	88 14 01	 mov	 BYTE PTR [rcx+rax], dl
  001f5	ff 83 f4 16 00
	00		 inc	 DWORD PTR [rbx+5876]
  001fb	66 ff 84 93 bc
	00 00 00	 inc	 WORD PTR [rbx+rdx*4+188]
  00203	8b 83 f0 16 00
	00		 mov	 eax, DWORD PTR [rbx+5872]
  00209	8b cf		 mov	 ecx, edi
  0020b	ff c8		 dec	 eax
  0020d	39 83 f4 16 00
	00		 cmp	 DWORD PTR [rbx+5876], eax
  00213	0f 94 c1	 sete	 cl

; 1913 :             s->lookahead--;

  00216	ff 8b 9c 00 00
	00		 dec	 DWORD PTR [rbx+156]

; 1914 :             s->strstart++;

  0021c	ff 83 94 00 00
	00		 inc	 DWORD PTR [rbx+148]
$LN7@deflate_rl:

; 1915 :         }
; 1916 :         if (bflush) FLUSH_BLOCK(s, 0);

  00222	85 c9		 test	 ecx, ecx
  00224	0f 84 06 fe ff
	ff		 je	 $LL20@deflate_rl
  0022a	8b 83 84 00 00
	00		 mov	 eax, DWORD PTR [rbx+132]
  00230	85 c0		 test	 eax, eax
  00232	78 08		 js	 SHORT $LN25@deflate_rl
  00234	8b d0		 mov	 edx, eax
  00236	48 03 53 50	 add	 rdx, QWORD PTR [rbx+80]
  0023a	eb 03		 jmp	 SHORT $LN26@deflate_rl
$LN25@deflate_rl:
  0023c	48 8b d7	 mov	 rdx, rdi
$LN26@deflate_rl:
  0023f	44 8b 83 94 00
	00 00		 mov	 r8d, DWORD PTR [rbx+148]
  00246	45 33 c9	 xor	 r9d, r9d
  00249	48 8b cb	 mov	 rcx, rbx
  0024c	44 2b c0	 sub	 r8d, eax
  0024f	e8 00 00 00 00	 call	 _tr_flush_block
  00254	44 8b 9b 94 00
	00 00		 mov	 r11d, DWORD PTR [rbx+148]
  0025b	48 8b 0b	 mov	 rcx, QWORD PTR [rbx]
  0025e	44 89 9b 84 00
	00 00		 mov	 DWORD PTR [rbx+132], r11d
  00265	e8 00 00 00 00	 call	 flush_pending
  0026a	4c 8b 1b	 mov	 r11, QWORD PTR [rbx]
  0026d	41 39 7b 18	 cmp	 DWORD PTR [r11+24], edi
  00271	0f 85 b9 fd ff
	ff		 jne	 $LL20@deflate_rl
$LN36@deflate_rl:
  00277	33 c0		 xor	 eax, eax
$LN21@deflate_rl:

; 1926 : }

  00279	48 8b 5c 24 30	 mov	 rbx, QWORD PTR [rsp+48]
  0027e	48 8b 6c 24 38	 mov	 rbp, QWORD PTR [rsp+56]
  00283	48 8b 74 24 40	 mov	 rsi, QWORD PTR [rsp+64]
  00288	48 8b 7c 24 48	 mov	 rdi, QWORD PTR [rsp+72]
  0028d	48 83 c4 20	 add	 rsp, 32			; 00000020H
  00291	41 5c		 pop	 r12
  00293	c3		 ret	 0
$LN35@deflate_rl:

; 1917 :     }
; 1918 :     s->insert = 0;

  00294	89 bb 0c 17 00
	00		 mov	 DWORD PTR [rbx+5900], edi

; 1919 :     if (flush == Z_FINISH) {

  0029a	83 fe 04	 cmp	 esi, 4
  0029d	75 50		 jne	 SHORT $LN4@deflate_rl

; 1920 :         FLUSH_BLOCK(s, 1);

  0029f	8b 83 84 00 00
	00		 mov	 eax, DWORD PTR [rbx+132]
  002a5	85 c0		 test	 eax, eax
  002a7	78 08		 js	 SHORT $LN27@deflate_rl
  002a9	8b d0		 mov	 edx, eax
  002ab	48 03 53 50	 add	 rdx, QWORD PTR [rbx+80]
  002af	eb 03		 jmp	 SHORT $LN28@deflate_rl
$LN27@deflate_rl:
  002b1	48 8b d7	 mov	 rdx, rdi
$LN28@deflate_rl:
  002b4	44 8b 83 94 00
	00 00		 mov	 r8d, DWORD PTR [rbx+148]
  002bb	44 8b cd	 mov	 r9d, ebp
  002be	48 8b cb	 mov	 rcx, rbx
  002c1	44 2b c0	 sub	 r8d, eax
  002c4	e8 00 00 00 00	 call	 _tr_flush_block
  002c9	44 8b 9b 94 00
	00 00		 mov	 r11d, DWORD PTR [rbx+148]
  002d0	48 8b 0b	 mov	 rcx, QWORD PTR [rbx]
  002d3	44 89 9b 84 00
	00 00		 mov	 DWORD PTR [rbx+132], r11d
  002da	e8 00 00 00 00	 call	 flush_pending
  002df	4c 8b 1b	 mov	 r11, QWORD PTR [rbx]
  002e2	41 39 7b 18	 cmp	 DWORD PTR [r11+24], edi
  002e6	40 0f 95 c7	 setne	 dil
  002ea	8d 47 02	 lea	 eax, DWORD PTR [rdi+2]

; 1921 :         return finish_done;

  002ed	eb 8a		 jmp	 SHORT $LN21@deflate_rl
$LN4@deflate_rl:

; 1922 :     }
; 1923 :     if (s->last_lit)

  002ef	39 bb f4 16 00
	00		 cmp	 DWORD PTR [rbx+5876], edi
  002f5	74 4c		 je	 SHORT $LN1@deflate_rl

; 1924 :         FLUSH_BLOCK(s, 0);

  002f7	8b 83 84 00 00
	00		 mov	 eax, DWORD PTR [rbx+132]
  002fd	85 c0		 test	 eax, eax
  002ff	78 06		 js	 SHORT $LN29@deflate_rl
  00301	8b f8		 mov	 edi, eax
  00303	48 03 7b 50	 add	 rdi, QWORD PTR [rbx+80]
$LN29@deflate_rl:
  00307	44 8b 83 94 00
	00 00		 mov	 r8d, DWORD PTR [rbx+148]
  0030e	45 33 c9	 xor	 r9d, r9d
  00311	48 8b d7	 mov	 rdx, rdi
  00314	44 2b c0	 sub	 r8d, eax
  00317	48 8b cb	 mov	 rcx, rbx
  0031a	e8 00 00 00 00	 call	 _tr_flush_block
  0031f	44 8b 9b 94 00
	00 00		 mov	 r11d, DWORD PTR [rbx+148]
  00326	48 8b 0b	 mov	 rcx, QWORD PTR [rbx]
  00329	44 89 9b 84 00
	00 00		 mov	 DWORD PTR [rbx+132], r11d
  00330	e8 00 00 00 00	 call	 flush_pending
  00335	4c 8b 1b	 mov	 r11, QWORD PTR [rbx]
  00338	41 83 7b 18 00	 cmp	 DWORD PTR [r11+24], 0
  0033d	0f 84 34 ff ff
	ff		 je	 $LN36@deflate_rl
$LN1@deflate_rl:

; 1925 :     return block_done;

  00343	8b c5		 mov	 eax, ebp
  00345	e9 2f ff ff ff	 jmp	 $LN21@deflate_rl
deflate_rle ENDP
_TEXT	ENDS
;	COMDAT pdata
pdata	SEGMENT
$pdata$deflate_slow DD imagerel deflate_slow
	DD	imagerel deflate_slow+1305
	DD	imagerel $unwind$deflate_slow
pdata	ENDS
;	COMDAT xdata
xdata	SEGMENT
$unwind$deflate_slow DD 0c3a01H
	DD	0a643aH
	DD	0c5417H
	DD	0b3417H
	DD	0f0133217H
	DD	0d00fe011H
	DD	0700bc00dH
; Function compile flags: /Ogtpy
xdata	ENDS
;	COMDAT deflate_slow
_TEXT	SEGMENT
s$ = 80
flush$ = 88
deflate_slow PROC					; COMDAT

; 1731 : {

  00000	48 89 5c 24 10	 mov	 QWORD PTR [rsp+16], rbx
  00005	48 89 6c 24 18	 mov	 QWORD PTR [rsp+24], rbp
  0000a	57		 push	 rdi
  0000b	41 54		 push	 r12
  0000d	41 55		 push	 r13
  0000f	41 56		 push	 r14
  00011	41 57		 push	 r15
  00013	48 83 ec 20	 sub	 rsp, 32			; 00000020H
  00017	33 ff		 xor	 edi, edi
  00019	44 8b e2	 mov	 r12d, edx
  0001c	48 8b d9	 mov	 rbx, rcx
  0001f	41 be ff ff 00
	00		 mov	 r14d, 65535		; 0000ffffH
  00025	4c 8d 2d 00 00
	00 00		 lea	 r13, OFFSET FLAT:__ImageBase
  0002c	41 bf 00 01 00
	00		 mov	 r15d, 256		; 00000100H
  00032	8d 6f 02	 lea	 ebp, QWORD PTR [rdi+2]
  00035	48 89 74 24 50	 mov	 QWORD PTR [rsp+80], rsi
  0003a	66 0f 1f 44 00
	00		 npad	 6
$LL26@deflate_sl:

; 1732 :     IPos hash_head;          /* head of hash chain */
; 1733 :     int bflush;              /* set if current block must be flushed */
; 1734 : 
; 1735 :     /* Process the input block. */
; 1736 :     for (;;) {
; 1737 :         /* Make sure that we always have enough lookahead, except
; 1738 :          * at the end of the input file. We need MAX_MATCH bytes
; 1739 :          * for the next match, plus MIN_MATCH bytes to insert the
; 1740 :          * string following the next match.
; 1741 :          */
; 1742 :         if (s->lookahead < MIN_LOOKAHEAD) {

  00040	8b 83 9c 00 00
	00		 mov	 eax, DWORD PTR [rbx+156]
  00046	3d 06 01 00 00	 cmp	 eax, 262		; 00000106H
  0004b	73 26		 jae	 SHORT $LN22@deflate_sl

; 1743 :             fill_window(s);

  0004d	48 8b cb	 mov	 rcx, rbx
  00050	e8 00 00 00 00	 call	 fill_window

; 1744 :             if (s->lookahead < MIN_LOOKAHEAD && flush == Z_NO_FLUSH) {

  00055	8b 83 9c 00 00
	00		 mov	 eax, DWORD PTR [rbx+156]
  0005b	3d 06 01 00 00	 cmp	 eax, 262		; 00000106H
  00060	73 09		 jae	 SHORT $LN23@deflate_sl
  00062	45 85 e4	 test	 r12d, r12d
  00065	0f 84 b4 02 00
	00		 je	 $LN47@deflate_sl
$LN23@deflate_sl:

; 1745 :                 return need_more;
; 1746 :             }
; 1747 :             if (s->lookahead == 0) break; /* flush the current block */

  0006b	85 c0		 test	 eax, eax
  0006d	0f 84 98 03 00
	00		 je	 $LN45@deflate_sl
$LN22@deflate_sl:

; 1748 :         }
; 1749 : 
; 1750 :         /* Insert the string window[strstart .. strstart+2] in the
; 1751 :          * dictionary, and set hash_head to the head of the hash chain:
; 1752 :          */
; 1753 :         hash_head = NIL;

  00073	44 8b c7	 mov	 r8d, edi

; 1754 :         if (s->lookahead >= MIN_MATCH) {

  00076	83 f8 03	 cmp	 eax, 3
  00079	72 69		 jb	 SHORT $LN21@deflate_sl

; 1755 :             INSERT_STRING(s, s->strstart, hash_head);

  0007b	48 8b 43 50	 mov	 rax, QWORD PTR [rbx+80]
  0007f	44 8b 8b 94 00
	00 00		 mov	 r9d, DWORD PTR [rbx+148]
  00086	48 8b 53 68	 mov	 rdx, QWORD PTR [rbx+104]
  0008a	41 8d 49 02	 lea	 ecx, DWORD PTR [r9+2]
  0008e	44 0f b6 04 01	 movzx	 r8d, BYTE PTR [rcx+rax]
  00093	8b 43 70	 mov	 eax, DWORD PTR [rbx+112]
  00096	8b 8b 80 00 00
	00		 mov	 ecx, DWORD PTR [rbx+128]
  0009c	d3 e0		 shl	 eax, cl
  0009e	48 8b 4b 60	 mov	 rcx, QWORD PTR [rbx+96]
  000a2	44 33 c0	 xor	 r8d, eax
  000a5	8b 43 4c	 mov	 eax, DWORD PTR [rbx+76]
  000a8	44 23 43 7c	 and	 r8d, DWORD PTR [rbx+124]
  000ac	4c 23 c8	 and	 r9, rax
  000af	44 89 43 70	 mov	 DWORD PTR [rbx+112], r8d
  000b3	42 0f b7 04 42	 movzx	 eax, WORD PTR [rdx+r8*2]
  000b8	66 42 89 04 49	 mov	 WORD PTR [rcx+r9*2], ax
  000bd	8b 43 4c	 mov	 eax, DWORD PTR [rbx+76]
  000c0	8b 8b 94 00 00
	00		 mov	 ecx, DWORD PTR [rbx+148]
  000c6	8b 53 70	 mov	 edx, DWORD PTR [rbx+112]
  000c9	48 23 c8	 and	 rcx, rax
  000cc	48 8b 43 60	 mov	 rax, QWORD PTR [rbx+96]
  000d0	44 0f b7 04 48	 movzx	 r8d, WORD PTR [rax+rcx*2]
  000d5	48 8b 4b 68	 mov	 rcx, QWORD PTR [rbx+104]
  000d9	0f b7 83 94 00
	00 00		 movzx	 eax, WORD PTR [rbx+148]
  000e0	66 89 04 51	 mov	 WORD PTR [rcx+rdx*2], ax
$LN21@deflate_sl:

; 1756 :         }
; 1757 : 
; 1758 :         /* Find the longest match, discarding those <= prev_length.
; 1759 :          */
; 1760 :         s->prev_length = s->match_length, s->prev_match = s->match_start;

  000e4	8b 8b 88 00 00
	00		 mov	 ecx, DWORD PTR [rbx+136]
  000ea	8b 83 98 00 00
	00		 mov	 eax, DWORD PTR [rbx+152]

; 1761 :         s->match_length = MIN_MATCH-1;

  000f0	89 ab 88 00 00
	00		 mov	 DWORD PTR [rbx+136], ebp
  000f6	89 8b a0 00 00
	00		 mov	 DWORD PTR [rbx+160], ecx
  000fc	89 83 8c 00 00
	00		 mov	 DWORD PTR [rbx+140], eax

; 1762 : 
; 1763 :         if (hash_head != NIL && s->prev_length < s->max_lazy_match &&
; 1764 :             s->strstart - hash_head <= MAX_DIST(s)) {

  00102	45 85 c0	 test	 r8d, r8d
  00105	74 5a		 je	 SHORT $LN19@deflate_sl
  00107	3b 8b a8 00 00
	00		 cmp	 ecx, DWORD PTR [rbx+168]
  0010d	73 52		 jae	 SHORT $LN19@deflate_sl
  0010f	8b 8b 94 00 00
	00		 mov	 ecx, DWORD PTR [rbx+148]
  00115	8b 43 44	 mov	 eax, DWORD PTR [rbx+68]
  00118	41 2b c8	 sub	 ecx, r8d
  0011b	2d 06 01 00 00	 sub	 eax, 262		; 00000106H
  00120	3b c8		 cmp	 ecx, eax
  00122	77 3d		 ja	 SHORT $LN19@deflate_sl

; 1765 :             /* To simplify the code, we prevent matches with the string
; 1766 :              * of window index 0 (in particular we have to avoid a match
; 1767 :              * of the string with itself at the start of the input file).
; 1768 :              */
; 1769 :             s->match_length = longest_match (s, hash_head);

  00124	41 8b d0	 mov	 edx, r8d
  00127	48 8b cb	 mov	 rcx, rbx
  0012a	e8 00 00 00 00	 call	 longest_match
  0012f	89 83 88 00 00
	00		 mov	 DWORD PTR [rbx+136], eax

; 1770 :             /* longest_match() sets match_start */
; 1771 : 
; 1772 :             if (s->match_length <= 5 && (s->strategy == Z_FILTERED
; 1773 : #if TOO_FAR <= 32767
; 1774 :                 || (s->match_length == MIN_MATCH &&
; 1775 :                     s->strstart - s->match_start > TOO_FAR)
; 1776 : #endif
; 1777 :                 )) {

  00135	83 f8 05	 cmp	 eax, 5
  00138	77 27		 ja	 SHORT $LN19@deflate_sl
  0013a	83 bb b0 00 00
	00 01		 cmp	 DWORD PTR [rbx+176], 1
  00141	74 18		 je	 SHORT $LN18@deflate_sl
  00143	83 f8 03	 cmp	 eax, 3
  00146	75 19		 jne	 SHORT $LN19@deflate_sl
  00148	8b 83 94 00 00
	00		 mov	 eax, DWORD PTR [rbx+148]
  0014e	2b 83 98 00 00
	00		 sub	 eax, DWORD PTR [rbx+152]
  00154	3d 00 10 00 00	 cmp	 eax, 4096		; 00001000H
  00159	76 06		 jbe	 SHORT $LN19@deflate_sl
$LN18@deflate_sl:

; 1778 : 
; 1779 :                 /* If prev_match is also MIN_MATCH, match_start is garbage
; 1780 :                  * but we will ignore the current match anyway.
; 1781 :                  */
; 1782 :                 s->match_length = MIN_MATCH-1;

  0015b	89 ab 88 00 00
	00		 mov	 DWORD PTR [rbx+136], ebp
$LN19@deflate_sl:

; 1783 :             }
; 1784 :         }
; 1785 :         /* If there was a match at the previous step and the current
; 1786 :          * match is not better, output the previous match:
; 1787 :          */
; 1788 :         if (s->prev_length >= MIN_MATCH && s->match_length <= s->prev_length) {

  00161	8b 83 a0 00 00
	00		 mov	 eax, DWORD PTR [rbx+160]
  00167	83 f8 03	 cmp	 eax, 3
  0016a	0f 82 ce 01 00
	00		 jb	 $LN17@deflate_sl
  00170	39 83 88 00 00
	00		 cmp	 DWORD PTR [rbx+136], eax
  00176	0f 87 c2 01 00
	00		 ja	 $LN17@deflate_sl

; 1789 :             uInt max_insert = s->strstart + s->lookahead - MIN_MATCH;

  0017c	8b 8b 94 00 00
	00		 mov	 ecx, DWORD PTR [rbx+148]
  00182	8b 83 9c 00 00
	00		 mov	 eax, DWORD PTR [rbx+156]

; 1790 :             /* Do not insert strings in hash table beyond this. */
; 1791 : 
; 1792 :             check_match(s, s->strstart-1, s->prev_match, s->prev_length);
; 1793 : 
; 1794 :             _tr_tally_dist(s, s->strstart -1 - s->prev_match,
; 1795 :                            s->prev_length - MIN_MATCH, bflush);

  00188	0f b6 93 a0 00
	00 00		 movzx	 edx, BYTE PTR [rbx+160]
  0018f	44 8d 5c 01 fd	 lea	 r11d, DWORD PTR [rcx+rax-3]
  00194	48 8b 83 f8 16
	00 00		 mov	 rax, QWORD PTR [rbx+5880]
  0019b	44 0f b7 c1	 movzx	 r8d, cx
  0019f	66 44 2b 83 8c
	00 00 00	 sub	 r8w, WORD PTR [rbx+140]
  001a7	8b 8b f4 16 00
	00		 mov	 ecx, DWORD PTR [rbx+5876]
  001ad	80 ea 03	 sub	 dl, 3
  001b0	66 41 ff c8	 dec	 r8w
  001b4	66 44 89 04 48	 mov	 WORD PTR [rax+rcx*2], r8w
  001b9	8b 8b f4 16 00
	00		 mov	 ecx, DWORD PTR [rbx+5876]
  001bf	48 8b 83 e8 16
	00 00		 mov	 rax, QWORD PTR [rbx+5864]
  001c6	88 14 01	 mov	 BYTE PTR [rcx+rax], dl
  001c9	ff 83 f4 16 00
	00		 inc	 DWORD PTR [rbx+5876]
  001cf	66 45 03 c6	 add	 r8w, r14w
  001d3	0f b6 c2	 movzx	 eax, dl
  001d6	42 0f b6 84 28
	00 00 00 00	 movzx	 eax, BYTE PTR _length_code[rax+r13]
  001df	66 ff 84 83 c0
	04 00 00	 inc	 WORD PTR [rbx+rax*4+1216]
  001e7	41 0f b7 c0	 movzx	 eax, r8w
  001eb	66 45 3b c7	 cmp	 r8w, r15w
  001ef	73 0b		 jae	 SHORT $LN29@deflate_sl
  001f1	42 0f b6 8c 28
	00 00 00 00	 movzx	 ecx, BYTE PTR _dist_code[rax+r13]
  001fa	eb 0d		 jmp	 SHORT $LN30@deflate_sl
$LN29@deflate_sl:
  001fc	48 c1 e8 07	 shr	 rax, 7
  00200	42 0f b6 8c 28
	00 01 00 00	 movzx	 ecx, BYTE PTR _dist_code[rax+r13+256]
$LN30@deflate_sl:
  00209	48 63 c1	 movsxd	 rax, ecx
  0020c	8b f7		 mov	 esi, edi
  0020e	66 ff 84 83 b0
	09 00 00	 inc	 WORD PTR [rbx+rax*4+2480]

; 1796 : 
; 1797 :             /* Insert in hash table all strings up to the end of the match.
; 1798 :              * strstart-1 and strstart are already inserted. If there is not
; 1799 :              * enough lookahead, the last two strings are not inserted in
; 1800 :              * the hash table.
; 1801 :              */
; 1802 :             s->lookahead -= s->prev_length-1;

  00216	8b 8b a0 00 00
	00		 mov	 ecx, DWORD PTR [rbx+160]
  0021c	8b 83 f0 16 00
	00		 mov	 eax, DWORD PTR [rbx+5872]
  00222	ff c8		 dec	 eax
  00224	39 83 f4 16 00
	00		 cmp	 DWORD PTR [rbx+5876], eax
  0022a	b8 01 00 00 00	 mov	 eax, 1
  0022f	40 0f 94 c6	 sete	 sil
  00233	2b c1		 sub	 eax, ecx
  00235	01 83 9c 00 00
	00		 add	 DWORD PTR [rbx+156], eax

; 1803 :             s->prev_length -= 2;

  0023b	8d 41 fe	 lea	 eax, DWORD PTR [rcx-2]
  0023e	89 83 a0 00 00
	00		 mov	 DWORD PTR [rbx+160], eax
  00244	66 66 66 66 0f
	1f 84 00 00 00
	00 00		 npad	 12
$LL16@deflate_sl:

; 1804 :             do {
; 1805 :                 if (++s->strstart <= max_insert) {

  00250	ff 83 94 00 00
	00		 inc	 DWORD PTR [rbx+148]
  00256	44 8b 93 94 00
	00 00		 mov	 r10d, DWORD PTR [rbx+148]
  0025d	45 3b d3	 cmp	 r10d, r11d
  00260	77 4e		 ja	 SHORT $LN15@deflate_sl

; 1806 :                     INSERT_STRING(s, s->strstart, hash_head);

  00262	48 8b 43 50	 mov	 rax, QWORD PTR [rbx+80]
  00266	48 8b 53 68	 mov	 rdx, QWORD PTR [rbx+104]
  0026a	44 8b 43 4c	 mov	 r8d, DWORD PTR [rbx+76]
  0026e	41 8d 4a 02	 lea	 ecx, DWORD PTR [r10+2]
  00272	44 0f b6 0c 01	 movzx	 r9d, BYTE PTR [rcx+rax]
  00277	8b 8b 80 00 00
	00		 mov	 ecx, DWORD PTR [rbx+128]
  0027d	8b 43 70	 mov	 eax, DWORD PTR [rbx+112]
  00280	d3 e0		 shl	 eax, cl
  00282	48 8b 4b 60	 mov	 rcx, QWORD PTR [rbx+96]
  00286	44 33 c8	 xor	 r9d, eax
  00289	44 23 4b 7c	 and	 r9d, DWORD PTR [rbx+124]
  0028d	4d 23 c2	 and	 r8, r10
  00290	44 89 4b 70	 mov	 DWORD PTR [rbx+112], r9d
  00294	42 0f b7 04 4a	 movzx	 eax, WORD PTR [rdx+r9*2]
  00299	66 42 89 04 41	 mov	 WORD PTR [rcx+r8*2], ax
  0029e	8b 53 70	 mov	 edx, DWORD PTR [rbx+112]
  002a1	48 8b 4b 68	 mov	 rcx, QWORD PTR [rbx+104]
  002a5	0f b7 83 94 00
	00 00		 movzx	 eax, WORD PTR [rbx+148]
  002ac	66 89 04 51	 mov	 WORD PTR [rcx+rdx*2], ax
$LN15@deflate_sl:

; 1807 :                 }
; 1808 :             } while (--s->prev_length != 0);

  002b0	ff 8b a0 00 00
	00		 dec	 DWORD PTR [rbx+160]
  002b6	75 98		 jne	 SHORT $LL16@deflate_sl

; 1809 :             s->match_available = 0;
; 1810 :             s->match_length = MIN_MATCH-1;
; 1811 :             s->strstart++;

  002b8	ff 83 94 00 00
	00		 inc	 DWORD PTR [rbx+148]
  002be	44 8b 83 94 00
	00 00		 mov	 r8d, DWORD PTR [rbx+148]
  002c5	89 bb 90 00 00
	00		 mov	 DWORD PTR [rbx+144], edi
  002cb	89 ab 88 00 00
	00		 mov	 DWORD PTR [rbx+136], ebp

; 1812 : 
; 1813 :             if (bflush) FLUSH_BLOCK(s, 0);

  002d1	85 f6		 test	 esi, esi
  002d3	0f 84 67 fd ff
	ff		 je	 $LL26@deflate_sl
  002d9	8b 83 84 00 00
	00		 mov	 eax, DWORD PTR [rbx+132]
  002df	85 c0		 test	 eax, eax
  002e1	78 08		 js	 SHORT $LN31@deflate_sl
  002e3	8b d0		 mov	 edx, eax
  002e5	48 03 53 50	 add	 rdx, QWORD PTR [rbx+80]
  002e9	eb 03		 jmp	 SHORT $LN32@deflate_sl
$LN31@deflate_sl:
  002eb	48 8b d7	 mov	 rdx, rdi
$LN32@deflate_sl:
  002ee	44 2b c0	 sub	 r8d, eax
  002f1	45 33 c9	 xor	 r9d, r9d
  002f4	48 8b cb	 mov	 rcx, rbx
  002f7	e8 00 00 00 00	 call	 _tr_flush_block
  002fc	44 8b 9b 94 00
	00 00		 mov	 r11d, DWORD PTR [rbx+148]
  00303	48 8b 0b	 mov	 rcx, QWORD PTR [rbx]
  00306	44 89 9b 84 00
	00 00		 mov	 DWORD PTR [rbx+132], r11d
  0030d	e8 00 00 00 00	 call	 flush_pending
  00312	4c 8b 1b	 mov	 r11, QWORD PTR [rbx]
  00315	41 39 7b 18	 cmp	 DWORD PTR [r11+24], edi
$LN48@deflate_sl:
  00319	0f 85 21 fd ff
	ff		 jne	 $LL26@deflate_sl
$LN47@deflate_sl:

; 1824 :             }
; 1825 :             s->strstart++;
; 1826 :             s->lookahead--;
; 1827 :             if (s->strm->avail_out == 0) return need_more;

  0031f	33 c0		 xor	 eax, eax
$LN27@deflate_sl:
  00321	48 8b 74 24 50	 mov	 rsi, QWORD PTR [rsp+80]

; 1851 : }

  00326	48 8b 5c 24 58	 mov	 rbx, QWORD PTR [rsp+88]
  0032b	48 8b 6c 24 60	 mov	 rbp, QWORD PTR [rsp+96]
  00330	48 83 c4 20	 add	 rsp, 32			; 00000020H
  00334	41 5f		 pop	 r15
  00336	41 5e		 pop	 r14
  00338	41 5d		 pop	 r13
  0033a	41 5c		 pop	 r12
  0033c	5f		 pop	 rdi
  0033d	c3		 ret	 0
$LN17@deflate_sl:

; 1814 : 
; 1815 :         } else if (s->match_available) {

  0033e	39 bb 90 00 00
	00		 cmp	 DWORD PTR [rbx+144], edi
  00344	0f 84 a6 00 00
	00		 je	 $LN9@deflate_sl

; 1816 :             /* If there was no match at the previous position, output a
; 1817 :              * single literal. If there was a match but the current match
; 1818 :              * is longer, truncate the previous match to a single literal.
; 1819 :              */
; 1820 :             Tracevv((stderr,"%c", s->window[s->strstart-1]));
; 1821 :             _tr_tally_lit(s, s->window[s->strstart-1], bflush);

  0034a	8b 8b 94 00 00
	00		 mov	 ecx, DWORD PTR [rbx+148]
  00350	48 8b 43 50	 mov	 rax, QWORD PTR [rbx+80]
  00354	ff c9		 dec	 ecx
  00356	0f b6 14 01	 movzx	 edx, BYTE PTR [rcx+rax]
  0035a	8b 8b f4 16 00
	00		 mov	 ecx, DWORD PTR [rbx+5876]
  00360	48 8b 83 f8 16
	00 00		 mov	 rax, QWORD PTR [rbx+5880]
  00367	66 89 3c 48	 mov	 WORD PTR [rax+rcx*2], di
  0036b	8b 8b f4 16 00
	00		 mov	 ecx, DWORD PTR [rbx+5876]
  00371	48 8b 83 e8 16
	00 00		 mov	 rax, QWORD PTR [rbx+5864]
  00378	88 14 01	 mov	 BYTE PTR [rcx+rax], dl
  0037b	ff 83 f4 16 00
	00		 inc	 DWORD PTR [rbx+5876]
  00381	66 ff 84 93 bc
	00 00 00	 inc	 WORD PTR [rbx+rdx*4+188]
  00389	8b 83 f0 16 00
	00		 mov	 eax, DWORD PTR [rbx+5872]
  0038f	ff c8		 dec	 eax
  00391	39 83 f4 16 00
	00		 cmp	 DWORD PTR [rbx+5876], eax

; 1822 :             if (bflush) {

  00397	75 40		 jne	 SHORT $LN8@deflate_sl

; 1823 :                 FLUSH_BLOCK_ONLY(s, 0);

  00399	8b 83 84 00 00
	00		 mov	 eax, DWORD PTR [rbx+132]
  0039f	85 c0		 test	 eax, eax
  003a1	78 08		 js	 SHORT $LN33@deflate_sl
  003a3	8b d0		 mov	 edx, eax
  003a5	48 03 53 50	 add	 rdx, QWORD PTR [rbx+80]
  003a9	eb 03		 jmp	 SHORT $LN34@deflate_sl
$LN33@deflate_sl:
  003ab	48 8b d7	 mov	 rdx, rdi
$LN34@deflate_sl:
  003ae	44 8b 83 94 00
	00 00		 mov	 r8d, DWORD PTR [rbx+148]
  003b5	45 33 c9	 xor	 r9d, r9d
  003b8	48 8b cb	 mov	 rcx, rbx
  003bb	44 2b c0	 sub	 r8d, eax
  003be	e8 00 00 00 00	 call	 _tr_flush_block
  003c3	44 8b 9b 94 00
	00 00		 mov	 r11d, DWORD PTR [rbx+148]
  003ca	48 8b 0b	 mov	 rcx, QWORD PTR [rbx]
  003cd	44 89 9b 84 00
	00 00		 mov	 DWORD PTR [rbx+132], r11d
  003d4	e8 00 00 00 00	 call	 flush_pending
$LN8@deflate_sl:

; 1824 :             }
; 1825 :             s->strstart++;
; 1826 :             s->lookahead--;
; 1827 :             if (s->strm->avail_out == 0) return need_more;

  003d9	48 8b 03	 mov	 rax, QWORD PTR [rbx]
  003dc	ff 83 94 00 00
	00		 inc	 DWORD PTR [rbx+148]
  003e2	ff 8b 9c 00 00
	00		 dec	 DWORD PTR [rbx+156]
  003e8	39 78 18	 cmp	 DWORD PTR [rax+24], edi

; 1828 :         } else {

  003eb	e9 29 ff ff ff	 jmp	 $LN48@deflate_sl
$LN9@deflate_sl:

; 1829 :             /* There is no previous match to compare with, wait for
; 1830 :              * the next step to decide.
; 1831 :              */
; 1832 :             s->match_available = 1;
; 1833 :             s->strstart++;

  003f0	ff 83 94 00 00
	00		 inc	 DWORD PTR [rbx+148]

; 1834 :             s->lookahead--;

  003f6	ff 8b 9c 00 00
	00		 dec	 DWORD PTR [rbx+156]
  003fc	c7 83 90 00 00
	00 01 00 00 00	 mov	 DWORD PTR [rbx+144], 1

; 1835 :         }
; 1836 :     }

  00406	e9 35 fc ff ff	 jmp	 $LL26@deflate_sl
$LN45@deflate_sl:

; 1837 :     Assert (flush != Z_NO_FLUSH, "no flush?");
; 1838 :     if (s->match_available) {

  0040b	39 bb 90 00 00
	00		 cmp	 DWORD PTR [rbx+144], edi
  00411	74 45		 je	 SHORT $LN5@deflate_sl

; 1839 :         Tracevv((stderr,"%c", s->window[s->strstart-1]));
; 1840 :         _tr_tally_lit(s, s->window[s->strstart-1], bflush);

  00413	8b 8b 94 00 00
	00		 mov	 ecx, DWORD PTR [rbx+148]
  00419	48 8b 43 50	 mov	 rax, QWORD PTR [rbx+80]
  0041d	ff c9		 dec	 ecx
  0041f	0f b6 14 01	 movzx	 edx, BYTE PTR [rcx+rax]
  00423	8b 8b f4 16 00
	00		 mov	 ecx, DWORD PTR [rbx+5876]
  00429	48 8b 83 f8 16
	00 00		 mov	 rax, QWORD PTR [rbx+5880]
  00430	66 89 3c 48	 mov	 WORD PTR [rax+rcx*2], di
  00434	8b 8b f4 16 00
	00		 mov	 ecx, DWORD PTR [rbx+5876]
  0043a	48 8b 83 e8 16
	00 00		 mov	 rax, QWORD PTR [rbx+5864]
  00441	88 14 01	 mov	 BYTE PTR [rcx+rax], dl
  00444	ff 83 f4 16 00
	00		 inc	 DWORD PTR [rbx+5876]
  0044a	66 ff 84 93 bc
	00 00 00	 inc	 WORD PTR [rbx+rdx*4+188]

; 1841 :         s->match_available = 0;

  00452	89 bb 90 00 00
	00		 mov	 DWORD PTR [rbx+144], edi
$LN5@deflate_sl:

; 1842 :     }
; 1843 :     s->insert = s->strstart < MIN_MATCH-1 ? s->strstart : MIN_MATCH-1;

  00458	8b 83 94 00 00
	00		 mov	 eax, DWORD PTR [rbx+148]
  0045e	3b c5		 cmp	 eax, ebp
  00460	0f 42 e8	 cmovb	 ebp, eax
  00463	89 ab 0c 17 00
	00		 mov	 DWORD PTR [rbx+5900], ebp

; 1844 :     if (flush == Z_FINISH) {

  00469	41 83 fc 04	 cmp	 r12d, 4
  0046d	75 51		 jne	 SHORT $LN4@deflate_sl

; 1845 :         FLUSH_BLOCK(s, 1);

  0046f	8b 8b 84 00 00
	00		 mov	 ecx, DWORD PTR [rbx+132]
  00475	85 c9		 test	 ecx, ecx
  00477	78 08		 js	 SHORT $LN37@deflate_sl
  00479	8b d1		 mov	 edx, ecx
  0047b	48 03 53 50	 add	 rdx, QWORD PTR [rbx+80]
  0047f	eb 03		 jmp	 SHORT $LN38@deflate_sl
$LN37@deflate_sl:
  00481	48 8b d7	 mov	 rdx, rdi
$LN38@deflate_sl:
  00484	2b c1		 sub	 eax, ecx
  00486	41 b9 01 00 00
	00		 mov	 r9d, 1
  0048c	48 8b cb	 mov	 rcx, rbx
  0048f	44 8b c0	 mov	 r8d, eax
  00492	e8 00 00 00 00	 call	 _tr_flush_block
  00497	44 8b 9b 94 00
	00 00		 mov	 r11d, DWORD PTR [rbx+148]
  0049e	48 8b 0b	 mov	 rcx, QWORD PTR [rbx]
  004a1	44 89 9b 84 00
	00 00		 mov	 DWORD PTR [rbx+132], r11d
  004a8	e8 00 00 00 00	 call	 flush_pending
  004ad	4c 8b 1b	 mov	 r11, QWORD PTR [rbx]
  004b0	41 39 7b 18	 cmp	 DWORD PTR [r11+24], edi
  004b4	40 0f 95 c7	 setne	 dil
  004b8	8d 47 02	 lea	 eax, DWORD PTR [rdi+2]

; 1846 :         return finish_done;

  004bb	e9 61 fe ff ff	 jmp	 $LN27@deflate_sl
$LN4@deflate_sl:

; 1847 :     }
; 1848 :     if (s->last_lit)

  004c0	39 bb f4 16 00
	00		 cmp	 DWORD PTR [rbx+5876], edi
  004c6	74 47		 je	 SHORT $LN1@deflate_sl

; 1849 :         FLUSH_BLOCK(s, 0);

  004c8	8b 8b 84 00 00
	00		 mov	 ecx, DWORD PTR [rbx+132]
  004ce	85 c9		 test	 ecx, ecx
  004d0	78 06		 js	 SHORT $LN39@deflate_sl
  004d2	8b f9		 mov	 edi, ecx
  004d4	48 03 7b 50	 add	 rdi, QWORD PTR [rbx+80]
$LN39@deflate_sl:
  004d8	2b c1		 sub	 eax, ecx
  004da	45 33 c9	 xor	 r9d, r9d
  004dd	48 8b d7	 mov	 rdx, rdi
  004e0	44 8b c0	 mov	 r8d, eax
  004e3	48 8b cb	 mov	 rcx, rbx
  004e6	e8 00 00 00 00	 call	 _tr_flush_block
  004eb	44 8b 9b 94 00
	00 00		 mov	 r11d, DWORD PTR [rbx+148]
  004f2	48 8b 0b	 mov	 rcx, QWORD PTR [rbx]
  004f5	44 89 9b 84 00
	00 00		 mov	 DWORD PTR [rbx+132], r11d
  004fc	e8 00 00 00 00	 call	 flush_pending
  00501	4c 8b 1b	 mov	 r11, QWORD PTR [rbx]
  00504	41 83 7b 18 00	 cmp	 DWORD PTR [r11+24], 0
  00509	0f 84 10 fe ff
	ff		 je	 $LN47@deflate_sl
$LN1@deflate_sl:

; 1850 :     return block_done;

  0050f	b8 01 00 00 00	 mov	 eax, 1
  00514	e9 08 fe ff ff	 jmp	 $LN27@deflate_sl
deflate_slow ENDP
_TEXT	ENDS
;	COMDAT pdata
pdata	SEGMENT
$pdata$deflate_fast DD imagerel deflate_fast
	DD	imagerel deflate_fast+1030
	DD	imagerel $unwind$deflate_fast
pdata	ENDS
;	COMDAT xdata
xdata	SEGMENT
$unwind$deflate_fast DD 0a1801H
	DD	0a6418H
	DD	095418H
	DD	083418H
	DD	0d0143218H
	DD	07010c012H
; Function compile flags: /Ogtpy
xdata	ENDS
;	COMDAT deflate_fast
_TEXT	SEGMENT
s$ = 64
flush$ = 72
deflate_fast PROC					; COMDAT

; 1629 : {

  00000	48 89 5c 24 08	 mov	 QWORD PTR [rsp+8], rbx
  00005	48 89 6c 24 10	 mov	 QWORD PTR [rsp+16], rbp
  0000a	48 89 74 24 18	 mov	 QWORD PTR [rsp+24], rsi
  0000f	57		 push	 rdi
  00010	41 54		 push	 r12
  00012	41 55		 push	 r13
  00014	48 83 ec 20	 sub	 rsp, 32			; 00000020H
  00018	8b f2		 mov	 esi, edx
  0001a	48 8b d9	 mov	 rbx, rcx
  0001d	41 bc ff ff 00
	00		 mov	 r12d, 65535		; 0000ffffH
  00023	48 8d 2d 00 00
	00 00		 lea	 rbp, OFFSET FLAT:__ImageBase
  0002a	33 ff		 xor	 edi, edi
  0002c	41 bd 00 01 00
	00		 mov	 r13d, 256		; 00000100H
$LL20@deflate_fa:

; 1630 :     IPos hash_head;       /* head of the hash chain */
; 1631 :     int bflush;           /* set if current block must be flushed */
; 1632 : 
; 1633 :     for (;;) {
; 1634 :         /* Make sure that we always have enough lookahead, except
; 1635 :          * at the end of the input file. We need MAX_MATCH bytes
; 1636 :          * for the next match, plus MIN_MATCH bytes to insert the
; 1637 :          * string following the next match.
; 1638 :          */
; 1639 :         if (s->lookahead < MIN_LOOKAHEAD) {

  00032	8b 83 9c 00 00
	00		 mov	 eax, DWORD PTR [rbx+156]
  00038	3d 06 01 00 00	 cmp	 eax, 262		; 00000106H
  0003d	73 25		 jae	 SHORT $LN16@deflate_fa

; 1640 :             fill_window(s);

  0003f	48 8b cb	 mov	 rcx, rbx
  00042	e8 00 00 00 00	 call	 fill_window

; 1641 :             if (s->lookahead < MIN_LOOKAHEAD && flush == Z_NO_FLUSH) {

  00047	8b 83 9c 00 00
	00		 mov	 eax, DWORD PTR [rbx+156]
  0004d	3d 06 01 00 00	 cmp	 eax, 262		; 00000106H
  00052	73 08		 jae	 SHORT $LN17@deflate_fa
  00054	85 f6		 test	 esi, esi
  00056	0f 84 ca 02 00
	00		 je	 $LN38@deflate_fa
$LN17@deflate_fa:

; 1642 :                 return need_more;
; 1643 :             }
; 1644 :             if (s->lookahead == 0) break; /* flush the current block */

  0005c	85 c0		 test	 eax, eax
  0005e	0f 84 dd 02 00
	00		 je	 $LN37@deflate_fa
$LN16@deflate_fa:

; 1645 :         }
; 1646 : 
; 1647 :         /* Insert the string window[strstart .. strstart+2] in the
; 1648 :          * dictionary, and set hash_head to the head of the hash chain:
; 1649 :          */
; 1650 :         hash_head = NIL;
; 1651 :         if (s->lookahead >= MIN_MATCH) {

  00064	83 f8 03	 cmp	 eax, 3
  00067	0f 82 90 00 00
	00		 jb	 $LN14@deflate_fa

; 1652 :             INSERT_STRING(s, s->strstart, hash_head);

  0006d	48 8b 43 50	 mov	 rax, QWORD PTR [rbx+80]
  00071	44 8b 8b 94 00
	00 00		 mov	 r9d, DWORD PTR [rbx+148]
  00078	48 8b 53 68	 mov	 rdx, QWORD PTR [rbx+104]
  0007c	41 8d 49 02	 lea	 ecx, DWORD PTR [r9+2]
  00080	44 0f b6 04 01	 movzx	 r8d, BYTE PTR [rcx+rax]
  00085	8b 43 70	 mov	 eax, DWORD PTR [rbx+112]
  00088	8b 8b 80 00 00
	00		 mov	 ecx, DWORD PTR [rbx+128]
  0008e	d3 e0		 shl	 eax, cl
  00090	48 8b 4b 60	 mov	 rcx, QWORD PTR [rbx+96]
  00094	44 33 c0	 xor	 r8d, eax
  00097	8b 43 4c	 mov	 eax, DWORD PTR [rbx+76]
  0009a	44 23 43 7c	 and	 r8d, DWORD PTR [rbx+124]
  0009e	4c 23 c8	 and	 r9, rax
  000a1	44 89 43 70	 mov	 DWORD PTR [rbx+112], r8d
  000a5	42 0f b7 04 42	 movzx	 eax, WORD PTR [rdx+r8*2]
  000aa	66 42 89 04 49	 mov	 WORD PTR [rcx+r9*2], ax
  000af	8b 43 4c	 mov	 eax, DWORD PTR [rbx+76]
  000b2	8b 8b 94 00 00
	00		 mov	 ecx, DWORD PTR [rbx+148]
  000b8	44 8b 43 70	 mov	 r8d, DWORD PTR [rbx+112]
  000bc	48 23 c8	 and	 rcx, rax
  000bf	48 8b 43 60	 mov	 rax, QWORD PTR [rbx+96]
  000c3	0f b7 14 48	 movzx	 edx, WORD PTR [rax+rcx*2]
  000c7	48 8b 4b 68	 mov	 rcx, QWORD PTR [rbx+104]
  000cb	0f b7 83 94 00
	00 00		 movzx	 eax, WORD PTR [rbx+148]
  000d2	66 42 89 04 41	 mov	 WORD PTR [rcx+r8*2], ax

; 1653 :         }
; 1654 : 
; 1655 :         /* Find the longest match, discarding those <= prev_length.
; 1656 :          * At this point we have always match_length < MIN_MATCH
; 1657 :          */
; 1658 :         if (hash_head != NIL && s->strstart - hash_head <= MAX_DIST(s)) {

  000d7	85 d2		 test	 edx, edx
  000d9	74 22		 je	 SHORT $LN14@deflate_fa
  000db	8b 8b 94 00 00
	00		 mov	 ecx, DWORD PTR [rbx+148]
  000e1	8b 43 44	 mov	 eax, DWORD PTR [rbx+68]
  000e4	2b ca		 sub	 ecx, edx
  000e6	2d 06 01 00 00	 sub	 eax, 262		; 00000106H
  000eb	3b c8		 cmp	 ecx, eax
  000ed	77 0e		 ja	 SHORT $LN14@deflate_fa

; 1659 :             /* To simplify the code, we prevent matches with the string
; 1660 :              * of window index 0 (in particular we have to avoid a match
; 1661 :              * of the string with itself at the start of the input file).
; 1662 :              */
; 1663 :             s->match_length = longest_match (s, hash_head);

  000ef	48 8b cb	 mov	 rcx, rbx
  000f2	e8 00 00 00 00	 call	 longest_match
  000f7	89 83 88 00 00
	00		 mov	 DWORD PTR [rbx+136], eax
$LN14@deflate_fa:

; 1664 :             /* longest_match() sets match_start */
; 1665 :         }
; 1666 :         if (s->match_length >= MIN_MATCH) {

  000fd	83 bb 88 00 00
	00 03		 cmp	 DWORD PTR [rbx+136], 3
  00104	0f 82 68 01 00
	00		 jb	 $LN13@deflate_fa

; 1667 :             check_match(s, s->strstart, s->match_start, s->match_length);
; 1668 : 
; 1669 :             _tr_tally_dist(s, s->strstart - s->match_start,
; 1670 :                            s->match_length - MIN_MATCH, bflush);

  0010a	8b 8b f4 16 00
	00		 mov	 ecx, DWORD PTR [rbx+5876]
  00110	44 0f b7 83 94
	00 00 00	 movzx	 r8d, WORD PTR [rbx+148]
  00118	48 8b 83 f8 16
	00 00		 mov	 rax, QWORD PTR [rbx+5880]
  0011f	66 44 2b 83 98
	00 00 00	 sub	 r8w, WORD PTR [rbx+152]
  00127	0f b6 93 88 00
	00 00		 movzx	 edx, BYTE PTR [rbx+136]
  0012e	66 44 89 04 48	 mov	 WORD PTR [rax+rcx*2], r8w
  00133	8b 8b f4 16 00
	00		 mov	 ecx, DWORD PTR [rbx+5876]
  00139	48 8b 83 e8 16
	00 00		 mov	 rax, QWORD PTR [rbx+5864]
  00140	80 ea 03	 sub	 dl, 3
  00143	66 45 03 c4	 add	 r8w, r12w
  00147	88 14 01	 mov	 BYTE PTR [rcx+rax], dl
  0014a	ff 83 f4 16 00
	00		 inc	 DWORD PTR [rbx+5876]
  00150	0f b6 c2	 movzx	 eax, dl
  00153	0f b6 84 28 00
	00 00 00	 movzx	 eax, BYTE PTR _length_code[rax+rbp]
  0015b	66 ff 84 83 c0
	04 00 00	 inc	 WORD PTR [rbx+rax*4+1216]
  00163	41 0f b7 c0	 movzx	 eax, r8w
  00167	66 45 3b c5	 cmp	 r8w, r13w
  0016b	73 0a		 jae	 SHORT $LN23@deflate_fa
  0016d	0f b6 8c 28 00
	00 00 00	 movzx	 ecx, BYTE PTR _dist_code[rax+rbp]
  00175	eb 0c		 jmp	 SHORT $LN24@deflate_fa
$LN23@deflate_fa:
  00177	48 c1 e8 07	 shr	 rax, 7
  0017b	0f b6 8c 28 00
	01 00 00	 movzx	 ecx, BYTE PTR _dist_code[rax+rbp+256]
$LN24@deflate_fa:
  00183	48 63 c1	 movsxd	 rax, ecx
  00186	44 8b d7	 mov	 r10d, edi
  00189	66 ff 84 83 b0
	09 00 00	 inc	 WORD PTR [rbx+rax*4+2480]
  00191	8b 83 f0 16 00
	00		 mov	 eax, DWORD PTR [rbx+5872]
  00197	ff c8		 dec	 eax
  00199	39 83 f4 16 00
	00		 cmp	 DWORD PTR [rbx+5876], eax

; 1671 : 
; 1672 :             s->lookahead -= s->match_length;

  0019f	8b 83 88 00 00
	00		 mov	 eax, DWORD PTR [rbx+136]
  001a5	41 0f 94 c2	 sete	 r10b
  001a9	29 83 9c 00 00
	00		 sub	 DWORD PTR [rbx+156], eax

; 1673 : 
; 1674 :             /* Insert new strings in the hash table only if the match length
; 1675 :              * is not too large. This saves time but degrades compression.
; 1676 :              */
; 1677 : #ifndef FASTEST
; 1678 :             if (s->match_length <= s->max_insert_length &&
; 1679 :                 s->lookahead >= MIN_MATCH) {

  001af	3b 83 a8 00 00
	00		 cmp	 eax, DWORD PTR [rbx+168]
  001b5	0f 87 7c 00 00
	00		 ja	 $LN12@deflate_fa
  001bb	83 bb 9c 00 00
	00 03		 cmp	 DWORD PTR [rbx+156], 3
  001c2	72 73		 jb	 SHORT $LN12@deflate_fa

; 1680 :                 s->match_length--; /* string at strstart already in table */

  001c4	ff c8		 dec	 eax
  001c6	89 83 88 00 00
	00		 mov	 DWORD PTR [rbx+136], eax
  001cc	0f 1f 40 00	 npad	 4
$LL11@deflate_fa:

; 1681 :                 do {
; 1682 :                     s->strstart++;

  001d0	ff 83 94 00 00
	00		 inc	 DWORD PTR [rbx+148]

; 1683 :                     INSERT_STRING(s, s->strstart, hash_head);

  001d6	48 8b 43 50	 mov	 rax, QWORD PTR [rbx+80]
  001da	44 8b 8b 94 00
	00 00		 mov	 r9d, DWORD PTR [rbx+148]
  001e1	48 8b 53 68	 mov	 rdx, QWORD PTR [rbx+104]
  001e5	41 8d 49 02	 lea	 ecx, DWORD PTR [r9+2]
  001e9	44 0f b6 04 01	 movzx	 r8d, BYTE PTR [rcx+rax]
  001ee	8b 43 70	 mov	 eax, DWORD PTR [rbx+112]
  001f1	8b 8b 80 00 00
	00		 mov	 ecx, DWORD PTR [rbx+128]
  001f7	d3 e0		 shl	 eax, cl
  001f9	48 8b 4b 60	 mov	 rcx, QWORD PTR [rbx+96]
  001fd	44 33 c0	 xor	 r8d, eax
  00200	8b 43 4c	 mov	 eax, DWORD PTR [rbx+76]
  00203	44 23 43 7c	 and	 r8d, DWORD PTR [rbx+124]
  00207	4c 23 c8	 and	 r9, rax
  0020a	44 89 43 70	 mov	 DWORD PTR [rbx+112], r8d
  0020e	42 0f b7 04 42	 movzx	 eax, WORD PTR [rdx+r8*2]
  00213	66 42 89 04 49	 mov	 WORD PTR [rcx+r9*2], ax
  00218	8b 53 70	 mov	 edx, DWORD PTR [rbx+112]
  0021b	48 8b 4b 68	 mov	 rcx, QWORD PTR [rbx+104]
  0021f	0f b7 83 94 00
	00 00		 movzx	 eax, WORD PTR [rbx+148]
  00226	66 89 04 51	 mov	 WORD PTR [rcx+rdx*2], ax

; 1684 :                     /* strstart never exceeds WSIZE-MAX_MATCH, so there are
; 1685 :                      * always MIN_MATCH bytes ahead.
; 1686 :                      */
; 1687 :                 } while (--s->match_length != 0);

  0022a	ff 8b 88 00 00
	00		 dec	 DWORD PTR [rbx+136]
  00230	75 9e		 jne	 SHORT $LL11@deflate_fa

; 1688 :                 s->strstart++;
; 1689 :             } else

  00232	e9 93 00 00 00	 jmp	 $LN39@deflate_fa
$LN12@deflate_fa:

; 1690 : #endif
; 1691 :             {
; 1692 :                 s->strstart += s->match_length;

  00237	01 83 94 00 00
	00		 add	 DWORD PTR [rbx+148], eax

; 1693 :                 s->match_length = 0;
; 1694 :                 s->ins_h = s->window[s->strstart];

  0023d	8b 83 94 00 00
	00		 mov	 eax, DWORD PTR [rbx+148]
  00243	48 8b 53 50	 mov	 rdx, QWORD PTR [rbx+80]

; 1695 :                 UPDATE_HASH(s, s->ins_h, s->window[s->strstart+1]);

  00247	8b 8b 80 00 00
	00		 mov	 ecx, DWORD PTR [rbx+128]
  0024d	89 bb 88 00 00
	00		 mov	 DWORD PTR [rbx+136], edi
  00253	44 0f b6 04 10	 movzx	 r8d, BYTE PTR [rax+rdx]
  00258	44 89 43 70	 mov	 DWORD PTR [rbx+112], r8d
  0025c	41 d3 e0	 shl	 r8d, cl
  0025f	ff c0		 inc	 eax
  00261	0f b6 04 10	 movzx	 eax, BYTE PTR [rax+rdx]
  00265	44 33 c0	 xor	 r8d, eax
  00268	44 23 43 7c	 and	 r8d, DWORD PTR [rbx+124]
  0026c	44 89 43 70	 mov	 DWORD PTR [rbx+112], r8d

; 1696 : #if MIN_MATCH != 3
; 1697 :                 Call UPDATE_HASH() MIN_MATCH-3 more times
; 1698 : #endif
; 1699 :                 /* If lookahead < MIN_MATCH, ins_h is garbage, but it does not
; 1700 :                  * matter since it will be recomputed at next deflate call.
; 1701 :                  */
; 1702 :             }
; 1703 :         } else {

  00270	eb 5e		 jmp	 SHORT $LN7@deflate_fa
$LN13@deflate_fa:

; 1704 :             /* No match, output a literal byte */
; 1705 :             Tracevv((stderr,"%c", s->window[s->strstart]));
; 1706 :             _tr_tally_lit (s, s->window[s->strstart], bflush);

  00272	8b 8b 94 00 00
	00		 mov	 ecx, DWORD PTR [rbx+148]
  00278	48 8b 43 50	 mov	 rax, QWORD PTR [rbx+80]
  0027c	44 8b d7	 mov	 r10d, edi
  0027f	0f b6 14 01	 movzx	 edx, BYTE PTR [rcx+rax]
  00283	8b 8b f4 16 00
	00		 mov	 ecx, DWORD PTR [rbx+5876]
  00289	48 8b 83 f8 16
	00 00		 mov	 rax, QWORD PTR [rbx+5880]
  00290	66 89 3c 48	 mov	 WORD PTR [rax+rcx*2], di
  00294	8b 8b f4 16 00
	00		 mov	 ecx, DWORD PTR [rbx+5876]
  0029a	48 8b 83 e8 16
	00 00		 mov	 rax, QWORD PTR [rbx+5864]
  002a1	88 14 01	 mov	 BYTE PTR [rcx+rax], dl
  002a4	ff 83 f4 16 00
	00		 inc	 DWORD PTR [rbx+5876]
  002aa	66 ff 84 93 bc
	00 00 00	 inc	 WORD PTR [rbx+rdx*4+188]
  002b2	8b 83 f0 16 00
	00		 mov	 eax, DWORD PTR [rbx+5872]
  002b8	ff c8		 dec	 eax
  002ba	39 83 f4 16 00
	00		 cmp	 DWORD PTR [rbx+5876], eax
  002c0	41 0f 94 c2	 sete	 r10b

; 1707 :             s->lookahead--;

  002c4	ff 8b 9c 00 00
	00		 dec	 DWORD PTR [rbx+156]
$LN39@deflate_fa:

; 1708 :             s->strstart++;

  002ca	ff 83 94 00 00
	00		 inc	 DWORD PTR [rbx+148]
$LN7@deflate_fa:

; 1709 :         }
; 1710 :         if (bflush) FLUSH_BLOCK(s, 0);

  002d0	45 85 d2	 test	 r10d, r10d
  002d3	0f 84 59 fd ff
	ff		 je	 $LL20@deflate_fa
  002d9	8b 83 84 00 00
	00		 mov	 eax, DWORD PTR [rbx+132]
  002df	85 c0		 test	 eax, eax
  002e1	78 08		 js	 SHORT $LN25@deflate_fa
  002e3	8b d0		 mov	 edx, eax
  002e5	48 03 53 50	 add	 rdx, QWORD PTR [rbx+80]
  002e9	eb 03		 jmp	 SHORT $LN26@deflate_fa
$LN25@deflate_fa:
  002eb	48 8b d7	 mov	 rdx, rdi
$LN26@deflate_fa:
  002ee	44 8b 83 94 00
	00 00		 mov	 r8d, DWORD PTR [rbx+148]
  002f5	45 33 c9	 xor	 r9d, r9d
  002f8	48 8b cb	 mov	 rcx, rbx
  002fb	44 2b c0	 sub	 r8d, eax
  002fe	e8 00 00 00 00	 call	 _tr_flush_block
  00303	44 8b 9b 94 00
	00 00		 mov	 r11d, DWORD PTR [rbx+148]
  0030a	48 8b 0b	 mov	 rcx, QWORD PTR [rbx]
  0030d	44 89 9b 84 00
	00 00		 mov	 DWORD PTR [rbx+132], r11d
  00314	e8 00 00 00 00	 call	 flush_pending
  00319	4c 8b 1b	 mov	 r11, QWORD PTR [rbx]
  0031c	41 39 7b 18	 cmp	 DWORD PTR [r11+24], edi
  00320	0f 85 0c fd ff
	ff		 jne	 $LL20@deflate_fa
$LN38@deflate_fa:
  00326	33 c0		 xor	 eax, eax
$LN21@deflate_fa:

; 1720 : }

  00328	48 8b 5c 24 40	 mov	 rbx, QWORD PTR [rsp+64]
  0032d	48 8b 6c 24 48	 mov	 rbp, QWORD PTR [rsp+72]
  00332	48 8b 74 24 50	 mov	 rsi, QWORD PTR [rsp+80]
  00337	48 83 c4 20	 add	 rsp, 32			; 00000020H
  0033b	41 5d		 pop	 r13
  0033d	41 5c		 pop	 r12
  0033f	5f		 pop	 rdi
  00340	c3		 ret	 0
$LN37@deflate_fa:

; 1711 :     }
; 1712 :     s->insert = s->strstart < MIN_MATCH-1 ? s->strstart : MIN_MATCH-1;

  00341	8b 8b 94 00 00
	00		 mov	 ecx, DWORD PTR [rbx+148]
  00347	b8 02 00 00 00	 mov	 eax, 2
  0034c	3b c8		 cmp	 ecx, eax
  0034e	0f 42 c1	 cmovb	 eax, ecx
  00351	89 83 0c 17 00
	00		 mov	 DWORD PTR [rbx+5900], eax

; 1713 :     if (flush == Z_FINISH) {

  00357	83 fe 04	 cmp	 esi, 4
  0035a	75 51		 jne	 SHORT $LN4@deflate_fa

; 1714 :         FLUSH_BLOCK(s, 1);

  0035c	8b 83 84 00 00
	00		 mov	 eax, DWORD PTR [rbx+132]
  00362	85 c0		 test	 eax, eax
  00364	78 08		 js	 SHORT $LN29@deflate_fa
  00366	8b d0		 mov	 edx, eax
  00368	48 03 53 50	 add	 rdx, QWORD PTR [rbx+80]
  0036c	eb 03		 jmp	 SHORT $LN30@deflate_fa
$LN29@deflate_fa:
  0036e	48 8b d7	 mov	 rdx, rdi
$LN30@deflate_fa:
  00371	2b c8		 sub	 ecx, eax
  00373	41 b9 01 00 00
	00		 mov	 r9d, 1
  00379	44 8b c1	 mov	 r8d, ecx
  0037c	48 8b cb	 mov	 rcx, rbx
  0037f	e8 00 00 00 00	 call	 _tr_flush_block
  00384	44 8b 9b 94 00
	00 00		 mov	 r11d, DWORD PTR [rbx+148]
  0038b	48 8b 0b	 mov	 rcx, QWORD PTR [rbx]
  0038e	44 89 9b 84 00
	00 00		 mov	 DWORD PTR [rbx+132], r11d
  00395	e8 00 00 00 00	 call	 flush_pending
  0039a	4c 8b 1b	 mov	 r11, QWORD PTR [rbx]
  0039d	41 39 7b 18	 cmp	 DWORD PTR [r11+24], edi
  003a1	40 0f 95 c7	 setne	 dil
  003a5	8d 47 02	 lea	 eax, DWORD PTR [rdi+2]

; 1715 :         return finish_done;

  003a8	e9 7b ff ff ff	 jmp	 $LN21@deflate_fa
$LN4@deflate_fa:

; 1716 :     }
; 1717 :     if (s->last_lit)

  003ad	39 bb f4 16 00
	00		 cmp	 DWORD PTR [rbx+5876], edi
  003b3	74 47		 je	 SHORT $LN1@deflate_fa

; 1718 :         FLUSH_BLOCK(s, 0);

  003b5	8b 83 84 00 00
	00		 mov	 eax, DWORD PTR [rbx+132]
  003bb	85 c0		 test	 eax, eax
  003bd	78 06		 js	 SHORT $LN31@deflate_fa
  003bf	8b f8		 mov	 edi, eax
  003c1	48 03 7b 50	 add	 rdi, QWORD PTR [rbx+80]
$LN31@deflate_fa:
  003c5	2b c8		 sub	 ecx, eax
  003c7	45 33 c9	 xor	 r9d, r9d
  003ca	48 8b d7	 mov	 rdx, rdi
  003cd	44 8b c1	 mov	 r8d, ecx
  003d0	48 8b cb	 mov	 rcx, rbx
  003d3	e8 00 00 00 00	 call	 _tr_flush_block
  003d8	44 8b 9b 94 00
	00 00		 mov	 r11d, DWORD PTR [rbx+148]
  003df	48 8b 0b	 mov	 rcx, QWORD PTR [rbx]
  003e2	44 89 9b 84 00
	00 00		 mov	 DWORD PTR [rbx+132], r11d
  003e9	e8 00 00 00 00	 call	 flush_pending
  003ee	4c 8b 1b	 mov	 r11, QWORD PTR [rbx]
  003f1	41 83 7b 18 00	 cmp	 DWORD PTR [r11+24], 0
  003f6	0f 84 2a ff ff
	ff		 je	 $LN38@deflate_fa
$LN1@deflate_fa:

; 1719 :     return block_done;

  003fc	b8 01 00 00 00	 mov	 eax, 1
  00401	e9 22 ff ff ff	 jmp	 $LN21@deflate_fa
deflate_fast ENDP
_TEXT	ENDS
;	COMDAT pdata
pdata	SEGMENT
$pdata$deflate_stored DD imagerel deflate_stored
	DD	imagerel deflate_stored+494
	DD	imagerel $unwind$deflate_stored
pdata	ENDS
;	COMDAT xdata
xdata	SEGMENT
$unwind$deflate_stored DD 081401H
	DD	086414H
	DD	075414H
	DD	063414H
	DD	070103214H
; Function compile flags: /Ogtpy
xdata	ENDS
;	COMDAT deflate_stored
_TEXT	SEGMENT
s$ = 48
flush$ = 56
deflate_stored PROC					; COMDAT

; 1565 : {

  00000	48 89 5c 24 08	 mov	 QWORD PTR [rsp+8], rbx
  00005	48 89 6c 24 10	 mov	 QWORD PTR [rsp+16], rbp
  0000a	48 89 74 24 18	 mov	 QWORD PTR [rsp+24], rsi
  0000f	57		 push	 rdi
  00010	48 83 ec 20	 sub	 rsp, 32			; 00000020H

; 1566 :     /* Stored blocks are limited to 0xffff bytes, pending_buf is limited
; 1567 :      * to pending_buf_size, and each stored block has a 5 byte header:
; 1568 :      */
; 1569 :     ulg max_block_size = 0xffff;
; 1570 :     ulg max_start;
; 1571 : 
; 1572 :     if (max_block_size > s->pending_buf_size - 5) {

  00014	8b 41 18	 mov	 eax, DWORD PTR [rcx+24]
  00017	be ff ff 00 00	 mov	 esi, 65535		; 0000ffffH
  0001c	8b ea		 mov	 ebp, edx
  0001e	83 c0 fb	 add	 eax, -5			; fffffffbH
  00021	48 8b d9	 mov	 rbx, rcx
  00024	3b c6		 cmp	 eax, esi
  00026	0f 42 f0	 cmovb	 esi, eax
  00029	33 ff		 xor	 edi, edi
  0002b	0f 1f 44 00 00	 npad	 5
$LL14@deflate_st:

; 1573 :         max_block_size = s->pending_buf_size - 5;
; 1574 :     }
; 1575 : 
; 1576 :     /* Copy as much as possible from input to output: */
; 1577 :     for (;;) {
; 1578 :         /* Fill the window as much as possible: */
; 1579 :         if (s->lookahead <= 1) {

  00030	8b 83 9c 00 00
	00		 mov	 eax, DWORD PTR [rbx+156]
  00036	83 f8 01	 cmp	 eax, 1
  00039	77 16		 ja	 SHORT $LN10@deflate_st

; 1580 : 
; 1581 :             Assert(s->strstart < s->w_size+MAX_DIST(s) ||
; 1582 :                    s->block_start >= (long)s->w_size, "slide too late");
; 1583 : 
; 1584 :             fill_window(s);

  0003b	48 8b cb	 mov	 rcx, rbx
  0003e	e8 00 00 00 00	 call	 fill_window

; 1585 :             if (s->lookahead == 0 && flush == Z_NO_FLUSH) return need_more;

  00043	8b 83 9c 00 00
	00		 mov	 eax, DWORD PTR [rbx+156]
  00049	85 c0		 test	 eax, eax
  0004b	0f 84 e5 00 00
	00		 je	 $LN32@deflate_st
$LN10@deflate_st:

; 1586 : 
; 1587 :             if (s->lookahead == 0) break; /* flush the current block */
; 1588 :         }
; 1589 :         Assert(s->block_start >= 0L, "block gone");
; 1590 : 
; 1591 :         s->strstart += s->lookahead;
; 1592 :         s->lookahead = 0;
; 1593 : 
; 1594 :         /* Emit a stored block if pending_buf will be full: */
; 1595 :         max_start = s->block_start + max_block_size;

  00051	8b 8b 84 00 00
	00		 mov	 ecx, DWORD PTR [rbx+132]
  00057	01 83 94 00 00
	00		 add	 DWORD PTR [rbx+148], eax

; 1596 :         if (s->strstart == 0 || (ulg)s->strstart >= max_start) {

  0005d	8b 83 94 00 00
	00		 mov	 eax, DWORD PTR [rbx+148]
  00063	44 8d 04 31	 lea	 r8d, DWORD PTR [rcx+rsi]
  00067	89 bb 9c 00 00
	00		 mov	 DWORD PTR [rbx+156], edi
  0006d	74 05		 je	 SHORT $LN8@deflate_st
  0006f	41 3b c0	 cmp	 eax, r8d
  00072	72 4d		 jb	 SHORT $LN7@deflate_st
$LN8@deflate_st:

; 1597 :             /* strstart == 0 is possible when wraparound on 16-bit machine */
; 1598 :             s->lookahead = (uInt)(s->strstart - max_start);

  00074	41 2b c0	 sub	 eax, r8d

; 1599 :             s->strstart = (uInt)max_start;

  00077	44 89 83 94 00
	00 00		 mov	 DWORD PTR [rbx+148], r8d
  0007e	89 83 9c 00 00
	00		 mov	 DWORD PTR [rbx+156], eax

; 1600 :             FLUSH_BLOCK(s, 0);

  00084	85 c9		 test	 ecx, ecx
  00086	78 09		 js	 SHORT $LN18@deflate_st
  00088	48 8b d1	 mov	 rdx, rcx
  0008b	48 03 53 50	 add	 rdx, QWORD PTR [rbx+80]
  0008f	eb 03		 jmp	 SHORT $LN19@deflate_st
$LN18@deflate_st:
  00091	48 8b d7	 mov	 rdx, rdi
$LN19@deflate_st:
  00094	44 2b c1	 sub	 r8d, ecx
  00097	45 33 c9	 xor	 r9d, r9d
  0009a	48 8b cb	 mov	 rcx, rbx
  0009d	e8 00 00 00 00	 call	 _tr_flush_block
  000a2	44 8b 9b 94 00
	00 00		 mov	 r11d, DWORD PTR [rbx+148]
  000a9	48 8b 0b	 mov	 rcx, QWORD PTR [rbx]
  000ac	44 89 9b 84 00
	00 00		 mov	 DWORD PTR [rbx+132], r11d
  000b3	e8 00 00 00 00	 call	 flush_pending
  000b8	4c 8b 1b	 mov	 r11, QWORD PTR [rbx]
  000bb	41 39 7b 18	 cmp	 DWORD PTR [r11+24], edi
  000bf	74 5e		 je	 SHORT $LN30@deflate_st
$LN7@deflate_st:

; 1601 :         }
; 1602 :         /* Flush if we may have to slide, otherwise block_start may become
; 1603 :          * negative and the data will be gone:
; 1604 :          */
; 1605 :         if (s->strstart - (uInt)s->block_start >= MAX_DIST(s)) {

  000c1	8b 8b 84 00 00
	00		 mov	 ecx, DWORD PTR [rbx+132]
  000c7	44 8b 83 94 00
	00 00		 mov	 r8d, DWORD PTR [rbx+148]
  000ce	8b 43 44	 mov	 eax, DWORD PTR [rbx+68]
  000d1	44 2b c1	 sub	 r8d, ecx
  000d4	2d 06 01 00 00	 sub	 eax, 262		; 00000106H
  000d9	44 3b c0	 cmp	 r8d, eax
  000dc	0f 82 4e ff ff
	ff		 jb	 $LL14@deflate_st

; 1606 :             FLUSH_BLOCK(s, 0);

  000e2	85 c9		 test	 ecx, ecx
  000e4	78 08		 js	 SHORT $LN20@deflate_st
  000e6	8b d1		 mov	 edx, ecx
  000e8	48 03 53 50	 add	 rdx, QWORD PTR [rbx+80]
  000ec	eb 03		 jmp	 SHORT $LN21@deflate_st
$LN20@deflate_st:
  000ee	48 8b d7	 mov	 rdx, rdi
$LN21@deflate_st:
  000f1	45 33 c9	 xor	 r9d, r9d
  000f4	48 8b cb	 mov	 rcx, rbx
  000f7	e8 00 00 00 00	 call	 _tr_flush_block
  000fc	44 8b 9b 94 00
	00 00		 mov	 r11d, DWORD PTR [rbx+148]
  00103	48 8b 0b	 mov	 rcx, QWORD PTR [rbx]
  00106	44 89 9b 84 00
	00 00		 mov	 DWORD PTR [rbx+132], r11d
  0010d	e8 00 00 00 00	 call	 flush_pending
  00112	4c 8b 1b	 mov	 r11, QWORD PTR [rbx]
  00115	41 39 7b 18	 cmp	 DWORD PTR [r11+24], edi
  00119	0f 85 11 ff ff
	ff		 jne	 $LL14@deflate_st
$LN30@deflate_st:

; 1600 :             FLUSH_BLOCK(s, 0);

  0011f	33 c0		 xor	 eax, eax
$LN16@deflate_st:

; 1617 : }

  00121	48 8b 5c 24 30	 mov	 rbx, QWORD PTR [rsp+48]
  00126	48 8b 6c 24 38	 mov	 rbp, QWORD PTR [rsp+56]
  0012b	48 8b 74 24 40	 mov	 rsi, QWORD PTR [rsp+64]
  00130	48 83 c4 20	 add	 rsp, 32			; 00000020H
  00134	5f		 pop	 rdi
  00135	c3		 ret	 0
$LN32@deflate_st:

; 1585 :             if (s->lookahead == 0 && flush == Z_NO_FLUSH) return need_more;

  00136	85 ed		 test	 ebp, ebp
  00138	74 e5		 je	 SHORT $LN30@deflate_st

; 1607 :         }
; 1608 :     }
; 1609 :     s->insert = 0;
; 1610 :     if (flush == Z_FINISH) {
; 1611 :         FLUSH_BLOCK(s, 1);

  0013a	8b 83 84 00 00
	00		 mov	 eax, DWORD PTR [rbx+132]
  00140	89 bb 0c 17 00
	00		 mov	 DWORD PTR [rbx+5900], edi
  00146	83 fd 04	 cmp	 ebp, 4
  00149	75 4d		 jne	 SHORT $LN4@deflate_st
  0014b	85 c0		 test	 eax, eax
  0014d	78 08		 js	 SHORT $LN22@deflate_st
  0014f	8b d0		 mov	 edx, eax
  00151	48 03 53 50	 add	 rdx, QWORD PTR [rbx+80]
  00155	eb 03		 jmp	 SHORT $LN23@deflate_st
$LN22@deflate_st:
  00157	48 8b d7	 mov	 rdx, rdi
$LN23@deflate_st:
  0015a	44 8b 83 94 00
	00 00		 mov	 r8d, DWORD PTR [rbx+148]
  00161	41 b9 01 00 00
	00		 mov	 r9d, 1
  00167	48 8b cb	 mov	 rcx, rbx
  0016a	44 2b c0	 sub	 r8d, eax
  0016d	e8 00 00 00 00	 call	 _tr_flush_block
  00172	44 8b 9b 94 00
	00 00		 mov	 r11d, DWORD PTR [rbx+148]
  00179	48 8b 0b	 mov	 rcx, QWORD PTR [rbx]
  0017c	44 89 9b 84 00
	00 00		 mov	 DWORD PTR [rbx+132], r11d
  00183	e8 00 00 00 00	 call	 flush_pending
  00188	4c 8b 1b	 mov	 r11, QWORD PTR [rbx]
  0018b	41 39 7b 18	 cmp	 DWORD PTR [r11+24], edi
  0018f	40 0f 95 c7	 setne	 dil
  00193	8d 47 02	 lea	 eax, DWORD PTR [rdi+2]

; 1612 :         return finish_done;

  00196	eb 89		 jmp	 SHORT $LN16@deflate_st
$LN4@deflate_st:

; 1613 :     }
; 1614 :     if ((long)s->strstart > s->block_start)

  00198	44 8b 83 94 00
	00 00		 mov	 r8d, DWORD PTR [rbx+148]
  0019f	44 3b c0	 cmp	 r8d, eax
  001a2	7e 40		 jle	 SHORT $LN1@deflate_st

; 1615 :         FLUSH_BLOCK(s, 0);

  001a4	85 c0		 test	 eax, eax
  001a6	78 07		 js	 SHORT $LN24@deflate_st
  001a8	48 8b f8	 mov	 rdi, rax
  001ab	48 03 7b 50	 add	 rdi, QWORD PTR [rbx+80]
$LN24@deflate_st:
  001af	44 2b c0	 sub	 r8d, eax
  001b2	45 33 c9	 xor	 r9d, r9d
  001b5	48 8b d7	 mov	 rdx, rdi
  001b8	48 8b cb	 mov	 rcx, rbx
  001bb	e8 00 00 00 00	 call	 _tr_flush_block
  001c0	44 8b 9b 94 00
	00 00		 mov	 r11d, DWORD PTR [rbx+148]
  001c7	48 8b 0b	 mov	 rcx, QWORD PTR [rbx]
  001ca	44 89 9b 84 00
	00 00		 mov	 DWORD PTR [rbx+132], r11d
  001d1	e8 00 00 00 00	 call	 flush_pending
  001d6	4c 8b 1b	 mov	 r11, QWORD PTR [rbx]
  001d9	41 83 7b 18 00	 cmp	 DWORD PTR [r11+24], 0
  001de	0f 84 3b ff ff
	ff		 je	 $LN30@deflate_st
$LN1@deflate_st:

; 1616 :     return block_done;

  001e4	b8 01 00 00 00	 mov	 eax, 1
  001e9	e9 33 ff ff ff	 jmp	 $LN16@deflate_st
deflate_stored ENDP
_TEXT	ENDS
PUBLIC	deflate
;	COMDAT pdata
pdata	SEGMENT
$pdata$deflate DD imagerel $LN112
	DD	imagerel $LN112+123
	DD	imagerel $unwind$deflate
pdata	ENDS
;	COMDAT pdata
pdata	SEGMENT
$pdata$1$deflate DD imagerel $LN112+123
	DD	imagerel $LN112+1073
	DD	imagerel $chain$1$deflate
pdata	ENDS
;	COMDAT pdata
pdata	SEGMENT
$pdata$2$deflate DD imagerel $LN112+1073
	DD	imagerel $LN112+1465
	DD	imagerel $chain$2$deflate
pdata	ENDS
;	COMDAT pdata
pdata	SEGMENT
$pdata$3$deflate DD imagerel $LN112+1465
	DD	imagerel $LN112+1605
	DD	imagerel $chain$3$deflate
pdata	ENDS
;	COMDAT pdata
pdata	SEGMENT
$pdata$5$deflate DD imagerel $LN112+1605
	DD	imagerel $LN112+2188
	DD	imagerel $chain$5$deflate
pdata	ENDS
;	COMDAT pdata
pdata	SEGMENT
$pdata$6$deflate DD imagerel $LN112+2188
	DD	imagerel $LN112+2213
	DD	imagerel $chain$6$deflate
pdata	ENDS
;	COMDAT xdata
xdata	SEGMENT
$chain$6$deflate DD 021H
	DD	imagerel $LN112
	DD	imagerel $LN112+123
	DD	imagerel $unwind$deflate
xdata	ENDS
;	COMDAT xdata
xdata	SEGMENT
$chain$5$deflate DD 040021H
	DD	0ad400H
	DD	085400H
	DD	imagerel $LN112
	DD	imagerel $LN112+123
	DD	imagerel $unwind$deflate
xdata	ENDS
;	COMDAT xdata
xdata	SEGMENT
$chain$3$deflate DD 021H
	DD	imagerel $LN112+123
	DD	imagerel $LN112+1073
	DD	imagerel $chain$1$deflate
xdata	ENDS
;	COMDAT xdata
xdata	SEGMENT
$chain$2$deflate DD 020521H
	DD	096405H
	DD	imagerel $LN112+123
	DD	imagerel $LN112+1073
	DD	imagerel $chain$1$deflate
xdata	ENDS
;	COMDAT xdata
xdata	SEGMENT
$chain$1$deflate DD 040a21H
	DD	0ad40aH
	DD	085405H
	DD	imagerel $LN112
	DD	imagerel $LN112+123
	DD	imagerel $unwind$deflate
xdata	ENDS
;	COMDAT xdata
xdata	SEGMENT
$unwind$deflate DD 040901H
	DD	0c0053209H
	DD	030027003H
; Function compile flags: /Ogtpy
xdata	ENDS
;	COMDAT deflate
_TEXT	SEGMENT
strm$ = 64
flush$ = 72
deflate	PROC						; COMDAT

; 666  : {

$LN112:
  00000	40 53		 push	 rbx
  00002	57		 push	 rdi
  00003	41 54		 push	 r12
  00005	48 83 ec 20	 sub	 rsp, 32			; 00000020H
  00009	44 8b e2	 mov	 r12d, edx
  0000c	48 8b f9	 mov	 rdi, rcx

; 667  :     int old_flush; /* value of flush param for previous deflate call */
; 668  :     deflate_state *s;
; 669  : 
; 670  :     if (strm == Z_NULL || strm->state == Z_NULL ||
; 671  :         flush > Z_BLOCK || flush < 0) {

  0000f	48 85 c9	 test	 rcx, rcx
  00012	0f 84 7f 08 00
	00		 je	 $LN82@deflate
  00018	48 8b 59 28	 mov	 rbx, QWORD PTR [rcx+40]
  0001c	48 85 db	 test	 rbx, rbx
  0001f	0f 84 72 08 00
	00		 je	 $LN82@deflate
  00025	83 fa 05	 cmp	 edx, 5
  00028	0f 87 69 08 00
	00		 ja	 $LN82@deflate

; 672  :         return Z_STREAM_ERROR;
; 673  :     }
; 674  :     s = strm->state;
; 675  : 
; 676  :     if (strm->next_out == Z_NULL ||
; 677  :         (strm->next_in == Z_NULL && strm->avail_in != 0) ||
; 678  :         (s->status == FINISH_STATE && flush != Z_FINISH)) {

  0002e	48 83 79 10 00	 cmp	 QWORD PTR [rcx+16], 0
  00033	0f 84 53 08 00
	00		 je	 $LN80@deflate
  00039	48 83 39 00	 cmp	 QWORD PTR [rcx], 0
  0003d	75 0a		 jne	 SHORT $LN79@deflate
  0003f	83 79 08 00	 cmp	 DWORD PTR [rcx+8], 0
  00043	0f 85 43 08 00
	00		 jne	 $LN80@deflate
$LN79@deflate:
  00049	8b 43 08	 mov	 eax, DWORD PTR [rbx+8]
  0004c	3d 9a 02 00 00	 cmp	 eax, 666		; 0000029aH
  00051	75 09		 jne	 SHORT $LN81@deflate
  00053	83 fa 04	 cmp	 edx, 4
  00056	0f 85 30 08 00
	00		 jne	 $LN80@deflate
$LN81@deflate:

; 680  :     }
; 681  :     if (strm->avail_out == 0) ERR_RETURN(strm, Z_BUF_ERROR);

  0005c	83 79 18 00	 cmp	 DWORD PTR [rcx+24], 0
  00060	75 19		 jne	 SHORT $LN78@deflate
  00062	48 8d 05 00 00
	00 00		 lea	 rax, OFFSET FLAT:??_C@_0N@DFPGLBGC@buffer?5error?$AA@
  00069	48 89 41 20	 mov	 QWORD PTR [rcx+32], rax
  0006d	b8 fb ff ff ff	 mov	 eax, -5

; 974  : }

  00072	48 83 c4 20	 add	 rsp, 32			; 00000020H
  00076	41 5c		 pop	 r12
  00078	5f		 pop	 rdi
  00079	5b		 pop	 rbx
  0007a	c3		 ret	 0
$LN78@deflate:
  0007b	48 89 6c 24 40	 mov	 QWORD PTR [rsp+64], rbp
  00080	4c 89 6c 24 50	 mov	 QWORD PTR [rsp+80], r13

; 682  : 
; 683  :     s->strm = strm; /* just in case */
; 684  :     old_flush = s->last_flush;

  00085	44 8b 6b 40	 mov	 r13d, DWORD PTR [rbx+64]

; 685  :     s->last_flush = flush;
; 686  : 
; 687  :     /* Write the header */
; 688  :     if (s->status == INIT_STATE) {

  00089	33 ed		 xor	 ebp, ebp
  0008b	89 53 40	 mov	 DWORD PTR [rbx+64], edx
  0008e	48 89 0b	 mov	 QWORD PTR [rbx], rcx
  00091	83 f8 2a	 cmp	 eax, 42			; 0000002aH
  00094	0f 85 be 02 00
	00		 jne	 $LN71@deflate

; 689  : #ifdef GZIP
; 690  :         if (s->wrap == 2) {

  0009a	83 7b 2c 02	 cmp	 DWORD PTR [rbx+44], 2
  0009e	0f 85 19 02 00
	00		 jne	 $LN76@deflate

; 691  :             strm->adler = crc32(0L, Z_NULL, 0);

  000a4	45 33 c0	 xor	 r8d, r8d
  000a7	33 d2		 xor	 edx, edx
  000a9	33 c9		 xor	 ecx, ecx
  000ab	e8 00 00 00 00	 call	 crc32
  000b0	89 47 4c	 mov	 DWORD PTR [rdi+76], eax

; 692  :             put_byte(s, 31);

  000b3	8b 4b 28	 mov	 ecx, DWORD PTR [rbx+40]
  000b6	48 8b 43 10	 mov	 rax, QWORD PTR [rbx+16]
  000ba	c6 04 01 1f	 mov	 BYTE PTR [rcx+rax], 31
  000be	ff 43 28	 inc	 DWORD PTR [rbx+40]
  000c1	8b 4b 28	 mov	 ecx, DWORD PTR [rbx+40]

; 693  :             put_byte(s, 139);

  000c4	48 8b 43 10	 mov	 rax, QWORD PTR [rbx+16]
  000c8	c6 04 01 8b	 mov	 BYTE PTR [rcx+rax], 139	; 0000008bH
  000cc	ff 43 28	 inc	 DWORD PTR [rbx+40]
  000cf	8b 4b 28	 mov	 ecx, DWORD PTR [rbx+40]

; 694  :             put_byte(s, 8);

  000d2	48 8b 43 10	 mov	 rax, QWORD PTR [rbx+16]
  000d6	c6 04 01 08	 mov	 BYTE PTR [rcx+rax], 8
  000da	ff 43 28	 inc	 DWORD PTR [rbx+40]

; 695  :             if (s->gzhead == Z_NULL) {

  000dd	4c 8b 43 30	 mov	 r8, QWORD PTR [rbx+48]
  000e1	44 8b 4b 28	 mov	 r9d, DWORD PTR [rbx+40]
  000e5	4d 85 c0	 test	 r8, r8
  000e8	0f 85 8f 00 00
	00		 jne	 $LN75@deflate

; 696  :                 put_byte(s, 0);

  000ee	48 8b 43 10	 mov	 rax, QWORD PTR [rbx+16]
  000f2	41 88 2c 01	 mov	 BYTE PTR [r9+rax], bpl
  000f6	ff 43 28	 inc	 DWORD PTR [rbx+40]
  000f9	8b 4b 28	 mov	 ecx, DWORD PTR [rbx+40]

; 697  :                 put_byte(s, 0);

  000fc	48 8b 43 10	 mov	 rax, QWORD PTR [rbx+16]
  00100	40 88 2c 01	 mov	 BYTE PTR [rcx+rax], bpl
  00104	ff 43 28	 inc	 DWORD PTR [rbx+40]
  00107	8b 4b 28	 mov	 ecx, DWORD PTR [rbx+40]

; 698  :                 put_byte(s, 0);

  0010a	48 8b 43 10	 mov	 rax, QWORD PTR [rbx+16]
  0010e	40 88 2c 01	 mov	 BYTE PTR [rcx+rax], bpl
  00112	ff 43 28	 inc	 DWORD PTR [rbx+40]
  00115	8b 4b 28	 mov	 ecx, DWORD PTR [rbx+40]

; 699  :                 put_byte(s, 0);

  00118	48 8b 43 10	 mov	 rax, QWORD PTR [rbx+16]
  0011c	40 88 2c 01	 mov	 BYTE PTR [rcx+rax], bpl
  00120	ff 43 28	 inc	 DWORD PTR [rbx+40]
  00123	8b 4b 28	 mov	 ecx, DWORD PTR [rbx+40]

; 700  :                 put_byte(s, 0);

  00126	48 8b 43 10	 mov	 rax, QWORD PTR [rbx+16]
  0012a	40 88 2c 01	 mov	 BYTE PTR [rcx+rax], bpl

; 701  :                 put_byte(s, s->level == 9 ? 2 :
; 702  :                             (s->strategy >= Z_HUFFMAN_ONLY || s->level < 2 ?
; 703  :                              4 : 0));

  0012e	8b 83 ac 00 00
	00		 mov	 eax, DWORD PTR [rbx+172]
  00134	ff 43 28	 inc	 DWORD PTR [rbx+40]
  00137	83 f8 09	 cmp	 eax, 9
  0013a	75 05		 jne	 SHORT $LN88@deflate
  0013c	8d 55 02	 lea	 edx, QWORD PTR [rbp+2]
  0013f	eb 15		 jmp	 SHORT $LN87@deflate
$LN88@deflate:
  00141	83 bb b0 00 00
	00 02		 cmp	 DWORD PTR [rbx+176], 2
  00148	7d 07		 jge	 SHORT $LN86@deflate
  0014a	8b d5		 mov	 edx, ebp
  0014c	83 f8 02	 cmp	 eax, 2
  0014f	7d 05		 jge	 SHORT $LN87@deflate
$LN86@deflate:
  00151	ba 04 00 00 00	 mov	 edx, 4
$LN87@deflate:
  00156	8b 4b 28	 mov	 ecx, DWORD PTR [rbx+40]
  00159	48 8b 43 10	 mov	 rax, QWORD PTR [rbx+16]
  0015d	88 14 01	 mov	 BYTE PTR [rcx+rax], dl
  00160	ff 43 28	 inc	 DWORD PTR [rbx+40]
  00163	8b 4b 28	 mov	 ecx, DWORD PTR [rbx+40]

; 704  :                 put_byte(s, OS_CODE);

  00166	48 8b 43 10	 mov	 rax, QWORD PTR [rbx+16]
  0016a	c6 04 01 0b	 mov	 BYTE PTR [rcx+rax], 11
  0016e	ff 43 28	 inc	 DWORD PTR [rbx+40]

; 705  :                 s->status = BUSY_STATE;

  00171	c7 43 08 71 00
	00 00		 mov	 DWORD PTR [rbx+8], 113	; 00000071H

; 706  :             }
; 707  :             else {

  00178	e9 db 01 00 00	 jmp	 $LN71@deflate
$LN75@deflate:

; 708  :                 put_byte(s, (s->gzhead->text ? 1 : 0) +
; 709  :                             (s->gzhead->hcrc ? 2 : 0) +
; 710  :                             (s->gzhead->extra == Z_NULL ? 0 : 4) +
; 711  :                             (s->gzhead->name == Z_NULL ? 0 : 8) +
; 712  :                             (s->gzhead->comment == Z_NULL ? 0 : 16)
; 713  :                         );

  0017d	49 8b 40 30	 mov	 rax, QWORD PTR [r8+48]
  00181	48 f7 d8	 neg	 rax
  00184	41 8b 40 3c	 mov	 eax, DWORD PTR [r8+60]
  00188	1a d2		 sbb	 dl, dl
  0018a	80 e2 10	 and	 dl, 16
  0018d	f7 d8		 neg	 eax
  0018f	49 8b 40 20	 mov	 rax, QWORD PTR [r8+32]
  00193	1a c9		 sbb	 cl, cl
  00195	80 e1 02	 and	 cl, 2
  00198	02 d1		 add	 dl, cl
  0019a	48 f7 d8	 neg	 rax
  0019d	49 8b 40 10	 mov	 rax, QWORD PTR [r8+16]
  001a1	1a c9		 sbb	 cl, cl
  001a3	80 e1 08	 and	 cl, 8
  001a6	02 d1		 add	 dl, cl
  001a8	48 f7 d8	 neg	 rax
  001ab	1a c9		 sbb	 cl, cl
  001ad	80 e1 04	 and	 cl, 4
  001b0	02 d1		 add	 dl, cl
  001b2	41 39 28	 cmp	 DWORD PTR [r8], ebp
  001b5	0f 95 c0	 setne	 al
  001b8	02 d0		 add	 dl, al
  001ba	48 8b 43 10	 mov	 rax, QWORD PTR [rbx+16]
  001be	41 88 14 01	 mov	 BYTE PTR [r9+rax], dl
  001c2	ff 43 28	 inc	 DWORD PTR [rbx+40]
  001c5	8b 53 28	 mov	 edx, DWORD PTR [rbx+40]

; 714  :                 put_byte(s, (Byte)(s->gzhead->time & 0xff));

  001c8	48 8b 43 30	 mov	 rax, QWORD PTR [rbx+48]
  001cc	48 8b 4b 10	 mov	 rcx, QWORD PTR [rbx+16]
  001d0	0f b6 40 04	 movzx	 eax, BYTE PTR [rax+4]
  001d4	88 04 0a	 mov	 BYTE PTR [rdx+rcx], al
  001d7	ff 43 28	 inc	 DWORD PTR [rbx+40]
  001da	8b 53 28	 mov	 edx, DWORD PTR [rbx+40]

; 715  :                 put_byte(s, (Byte)((s->gzhead->time >> 8) & 0xff));

  001dd	48 8b 43 30	 mov	 rax, QWORD PTR [rbx+48]
  001e1	48 8b 4b 10	 mov	 rcx, QWORD PTR [rbx+16]
  001e5	0f b6 40 05	 movzx	 eax, BYTE PTR [rax+5]
  001e9	88 04 0a	 mov	 BYTE PTR [rdx+rcx], al
  001ec	ff 43 28	 inc	 DWORD PTR [rbx+40]
  001ef	8b 53 28	 mov	 edx, DWORD PTR [rbx+40]

; 716  :                 put_byte(s, (Byte)((s->gzhead->time >> 16) & 0xff));

  001f2	48 8b 43 30	 mov	 rax, QWORD PTR [rbx+48]
  001f6	48 8b 4b 10	 mov	 rcx, QWORD PTR [rbx+16]
  001fa	0f b6 40 06	 movzx	 eax, BYTE PTR [rax+6]
  001fe	88 04 0a	 mov	 BYTE PTR [rdx+rcx], al
  00201	ff 43 28	 inc	 DWORD PTR [rbx+40]

; 717  :                 put_byte(s, (Byte)((s->gzhead->time >> 24) & 0xff));

  00204	48 8b 43 30	 mov	 rax, QWORD PTR [rbx+48]
  00208	0f b6 40 07	 movzx	 eax, BYTE PTR [rax+7]
  0020c	8b 53 28	 mov	 edx, DWORD PTR [rbx+40]
  0020f	48 8b 4b 10	 mov	 rcx, QWORD PTR [rbx+16]
  00213	88 04 0a	 mov	 BYTE PTR [rdx+rcx], al

; 718  :                 put_byte(s, s->level == 9 ? 2 :
; 719  :                             (s->strategy >= Z_HUFFMAN_ONLY || s->level < 2 ?
; 720  :                              4 : 0));

  00216	8b 83 ac 00 00
	00		 mov	 eax, DWORD PTR [rbx+172]
  0021c	ff 43 28	 inc	 DWORD PTR [rbx+40]
  0021f	83 f8 09	 cmp	 eax, 9
  00222	75 05		 jne	 SHORT $LN92@deflate
  00224	8d 50 f9	 lea	 edx, QWORD PTR [rax-7]
  00227	eb 15		 jmp	 SHORT $LN91@deflate
$LN92@deflate:
  00229	83 bb b0 00 00
	00 02		 cmp	 DWORD PTR [rbx+176], 2
  00230	7d 07		 jge	 SHORT $LN90@deflate
  00232	8b d5		 mov	 edx, ebp
  00234	83 f8 02	 cmp	 eax, 2
  00237	7d 05		 jge	 SHORT $LN91@deflate
$LN90@deflate:
  00239	ba 04 00 00 00	 mov	 edx, 4
$LN91@deflate:
  0023e	8b 4b 28	 mov	 ecx, DWORD PTR [rbx+40]
  00241	48 8b 43 10	 mov	 rax, QWORD PTR [rbx+16]
  00245	88 14 01	 mov	 BYTE PTR [rcx+rax], dl
  00248	ff 43 28	 inc	 DWORD PTR [rbx+40]

; 721  :                 put_byte(s, s->gzhead->os & 0xff);

  0024b	48 8b 43 30	 mov	 rax, QWORD PTR [rbx+48]
  0024f	0f b6 40 0c	 movzx	 eax, BYTE PTR [rax+12]
  00253	8b 53 28	 mov	 edx, DWORD PTR [rbx+40]
  00256	48 8b 4b 10	 mov	 rcx, QWORD PTR [rbx+16]
  0025a	88 04 0a	 mov	 BYTE PTR [rdx+rcx], al
  0025d	ff 43 28	 inc	 DWORD PTR [rbx+40]

; 722  :                 if (s->gzhead->extra != Z_NULL) {

  00260	48 8b 43 30	 mov	 rax, QWORD PTR [rbx+48]
  00264	44 8b 43 28	 mov	 r8d, DWORD PTR [rbx+40]
  00268	48 39 68 10	 cmp	 QWORD PTR [rax+16], rbp
  0026c	74 28		 je	 SHORT $LN73@deflate

; 723  :                     put_byte(s, s->gzhead->extra_len & 0xff);

  0026e	0f b6 40 18	 movzx	 eax, BYTE PTR [rax+24]
  00272	48 8b 4b 10	 mov	 rcx, QWORD PTR [rbx+16]
  00276	41 88 04 08	 mov	 BYTE PTR [r8+rcx], al
  0027a	ff 43 28	 inc	 DWORD PTR [rbx+40]

; 724  :                     put_byte(s, (s->gzhead->extra_len >> 8) & 0xff);

  0027d	48 8b 43 30	 mov	 rax, QWORD PTR [rbx+48]
  00281	8b 53 28	 mov	 edx, DWORD PTR [rbx+40]
  00284	0f b6 40 19	 movzx	 eax, BYTE PTR [rax+25]
  00288	48 8b 4b 10	 mov	 rcx, QWORD PTR [rbx+16]
  0028c	88 04 0a	 mov	 BYTE PTR [rdx+rcx], al
  0028f	ff 43 28	 inc	 DWORD PTR [rbx+40]
  00292	44 8b 43 28	 mov	 r8d, DWORD PTR [rbx+40]
$LN73@deflate:

; 725  :                 }
; 726  :                 if (s->gzhead->hcrc)

  00296	48 8b 43 30	 mov	 rax, QWORD PTR [rbx+48]
  0029a	39 68 3c	 cmp	 DWORD PTR [rax+60], ebp
  0029d	74 0f		 je	 SHORT $LN72@deflate

; 727  :                     strm->adler = crc32(strm->adler, s->pending_buf,
; 728  :                                         s->pending);

  0029f	48 8b 53 10	 mov	 rdx, QWORD PTR [rbx+16]
  002a3	8b 4f 4c	 mov	 ecx, DWORD PTR [rdi+76]
  002a6	e8 00 00 00 00	 call	 crc32
  002ab	89 47 4c	 mov	 DWORD PTR [rdi+76], eax
$LN72@deflate:

; 729  :                 s->gzindex = 0;

  002ae	89 6b 38	 mov	 DWORD PTR [rbx+56], ebp

; 730  :                 s->status = EXTRA_STATE;

  002b1	c7 43 08 45 00
	00 00		 mov	 DWORD PTR [rbx+8], 69	; 00000045H

; 731  :             }
; 732  :         }
; 733  :         else

  002b8	e9 9b 00 00 00	 jmp	 $LN71@deflate
$LN76@deflate:

; 734  : #endif
; 735  :         {
; 736  :             uInt header = (Z_DEFLATED + ((s->w_bits-8)<<4)) << 8;

  002bd	8b 4b 48	 mov	 ecx, DWORD PTR [rbx+72]
  002c0	83 e9 08	 sub	 ecx, 8
  002c3	c1 e1 0c	 shl	 ecx, 12
  002c6	81 c1 00 08 00
	00		 add	 ecx, 2048		; 00000800H

; 737  :             uInt level_flags;
; 738  : 
; 739  :             if (s->strategy >= Z_HUFFMAN_ONLY || s->level < 2)

  002cc	83 bb b0 00 00
	00 02		 cmp	 DWORD PTR [rbx+176], 2
  002d3	7d 24		 jge	 SHORT $LN69@deflate
  002d5	8b 93 ac 00 00
	00		 mov	 edx, DWORD PTR [rbx+172]
  002db	83 fa 02	 cmp	 edx, 2
  002de	7c 19		 jl	 SHORT $LN69@deflate

; 741  :             else if (s->level < 6)

  002e0	83 fa 06	 cmp	 edx, 6
  002e3	7d 07		 jge	 SHORT $LN67@deflate

; 742  :                 level_flags = 1;

  002e5	b8 01 00 00 00	 mov	 eax, 1
  002ea	eb 0f		 jmp	 SHORT $LN64@deflate
$LN67@deflate:

; 743  :             else if (s->level == 6)

  002ec	83 fa 06	 cmp	 edx, 6
  002ef	8b c5		 mov	 eax, ebp
  002f1	0f 95 c0	 setne	 al
  002f4	83 c0 02	 add	 eax, 2

; 744  :                 level_flags = 2;
; 745  :             else
; 746  :                 level_flags = 3;

  002f7	eb 02		 jmp	 SHORT $LN64@deflate
$LN69@deflate:

; 740  :                 level_flags = 0;

  002f9	8b c5		 mov	 eax, ebp
$LN64@deflate:

; 747  :             header |= (level_flags << 6);

  002fb	c1 e0 06	 shl	 eax, 6
  002fe	0b c8		 or	 ecx, eax

; 748  :             if (s->strstart != 0) header |= PRESET_DICT;

  00300	39 ab 94 00 00
	00		 cmp	 DWORD PTR [rbx+148], ebp
  00306	74 03		 je	 SHORT $LN63@deflate
  00308	83 c9 20	 or	 ecx, 32			; 00000020H
$LN63@deflate:

; 749  :             header += 31 - (header % 31);

  0030b	b8 85 10 42 08	 mov	 eax, 138547333		; 08421085H

; 750  : 
; 751  :             s->status = BUSY_STATE;

  00310	c7 43 08 71 00
	00 00		 mov	 DWORD PTR [rbx+8], 113	; 00000071H
  00317	f7 e1		 mul	 ecx
  00319	2b ca		 sub	 ecx, edx
  0031b	d1 e9		 shr	 ecx, 1
  0031d	03 d1		 add	 edx, ecx

; 752  :             putShortMSB(s, header);

  0031f	48 8b cb	 mov	 rcx, rbx
  00322	c1 ea 04	 shr	 edx, 4
  00325	ff c2		 inc	 edx
  00327	6b d2 1f	 imul	 edx, 31
  0032a	e8 00 00 00 00	 call	 putShortMSB

; 753  : 
; 754  :             /* Save the adler32 of the preset dictionary: */
; 755  :             if (s->strstart != 0) {

  0032f	39 ab 94 00 00
	00		 cmp	 DWORD PTR [rbx+148], ebp
  00335	74 12		 je	 SHORT $LN62@deflate

; 756  :                 putShortMSB(s, (uInt)(strm->adler >> 16));

  00337	0f b7 57 4e	 movzx	 edx, WORD PTR [rdi+78]
  0033b	e8 00 00 00 00	 call	 putShortMSB

; 757  :                 putShortMSB(s, (uInt)(strm->adler & 0xffff));

  00340	0f b7 57 4c	 movzx	 edx, WORD PTR [rdi+76]
  00344	e8 00 00 00 00	 call	 putShortMSB
$LN62@deflate:

; 758  :             }
; 759  :             strm->adler = adler32(0L, Z_NULL, 0);

  00349	45 33 c0	 xor	 r8d, r8d
  0034c	33 d2		 xor	 edx, edx
  0034e	33 c9		 xor	 ecx, ecx
  00350	e8 00 00 00 00	 call	 adler32
  00355	89 47 4c	 mov	 DWORD PTR [rdi+76], eax
$LN71@deflate:

; 760  :         }
; 761  :     }
; 762  : #ifdef GZIP
; 763  :     if (s->status == EXTRA_STATE) {

  00358	83 7b 08 45	 cmp	 DWORD PTR [rbx+8], 69	; 00000045H
  0035c	0f 85 cb 00 00
	00		 jne	 $LN52@deflate

; 764  :         if (s->gzhead->extra != Z_NULL) {

  00362	48 8b 43 30	 mov	 rax, QWORD PTR [rbx+48]
  00366	48 39 68 10	 cmp	 QWORD PTR [rax+16], rbp
  0036a	0f 84 b6 00 00
	00		 je	 $LN60@deflate

; 765  :             uInt beg = s->pending;  /* start of bytes to update crc */
; 766  : 
; 767  :             while (s->gzindex < (s->gzhead->extra_len & 0xffff)) {

  00370	0f b7 40 18	 movzx	 eax, WORD PTR [rax+24]
  00374	44 8b 53 28	 mov	 r10d, DWORD PTR [rbx+40]
  00378	39 43 38	 cmp	 DWORD PTR [rbx+56], eax
  0037b	73 73		 jae	 SHORT $LN105@deflate
  0037d	0f 1f 00	 npad	 3
$LL59@deflate:

; 768  :                 if (s->pending == s->pending_buf_size) {

  00380	8b 4b 28	 mov	 ecx, DWORD PTR [rbx+40]
  00383	3b 4b 18	 cmp	 ecx, DWORD PTR [rbx+24]
  00386	75 39		 jne	 SHORT $LN55@deflate

; 769  :                     if (s->gzhead->hcrc && s->pending > beg)

  00388	48 8b 43 30	 mov	 rax, QWORD PTR [rbx+48]
  0038c	39 68 3c	 cmp	 DWORD PTR [rax+60], ebp
  0038f	74 1d		 je	 SHORT $LN56@deflate
  00391	41 3b ca	 cmp	 ecx, r10d
  00394	76 18		 jbe	 SHORT $LN56@deflate

; 770  :                         strm->adler = crc32(strm->adler, s->pending_buf + beg,
; 771  :                                             s->pending - beg);

  00396	41 2b ca	 sub	 ecx, r10d
  00399	41 8b d2	 mov	 edx, r10d
  0039c	48 03 53 10	 add	 rdx, QWORD PTR [rbx+16]
  003a0	44 8b c1	 mov	 r8d, ecx
  003a3	8b 4f 4c	 mov	 ecx, DWORD PTR [rdi+76]
  003a6	e8 00 00 00 00	 call	 crc32
  003ab	89 47 4c	 mov	 DWORD PTR [rdi+76], eax
$LN56@deflate:

; 772  :                     flush_pending(strm);

  003ae	48 8b cf	 mov	 rcx, rdi
  003b1	e8 00 00 00 00	 call	 flush_pending

; 773  :                     beg = s->pending;

  003b6	8b 4b 28	 mov	 ecx, DWORD PTR [rbx+40]
  003b9	44 8b d1	 mov	 r10d, ecx

; 774  :                     if (s->pending == s->pending_buf_size)

  003bc	3b 4b 18	 cmp	 ecx, DWORD PTR [rbx+24]
  003bf	74 2f		 je	 SHORT $LN105@deflate
$LN55@deflate:

; 775  :                         break;
; 776  :                 }
; 777  :                 put_byte(s, s->gzhead->extra[s->gzindex]);

  003c1	48 8b 43 30	 mov	 rax, QWORD PTR [rbx+48]
  003c5	44 8b 4b 38	 mov	 r9d, DWORD PTR [rbx+56]
  003c9	44 8b c1	 mov	 r8d, ecx
  003cc	48 8b 50 10	 mov	 rdx, QWORD PTR [rax+16]
  003d0	48 8b 4b 10	 mov	 rcx, QWORD PTR [rbx+16]
  003d4	41 0f b6 04 11	 movzx	 eax, BYTE PTR [r9+rdx]
  003d9	41 88 04 08	 mov	 BYTE PTR [r8+rcx], al
  003dd	ff 43 28	 inc	 DWORD PTR [rbx+40]

; 778  :                 s->gzindex++;

  003e0	ff 43 38	 inc	 DWORD PTR [rbx+56]
  003e3	48 8b 43 30	 mov	 rax, QWORD PTR [rbx+48]
  003e7	0f b7 48 18	 movzx	 ecx, WORD PTR [rax+24]
  003eb	39 4b 38	 cmp	 DWORD PTR [rbx+56], ecx
  003ee	72 90		 jb	 SHORT $LL59@deflate
$LN105@deflate:

; 779  :             }
; 780  :             if (s->gzhead->hcrc && s->pending > beg)

  003f0	48 8b 43 30	 mov	 rax, QWORD PTR [rbx+48]
  003f4	39 68 3c	 cmp	 DWORD PTR [rax+60], ebp
  003f7	74 1e		 je	 SHORT $LN54@deflate
  003f9	44 8b 43 28	 mov	 r8d, DWORD PTR [rbx+40]
  003fd	45 3b c2	 cmp	 r8d, r10d
  00400	76 15		 jbe	 SHORT $LN54@deflate

; 781  :                 strm->adler = crc32(strm->adler, s->pending_buf + beg,
; 782  :                                     s->pending - beg);

  00402	8b 4f 4c	 mov	 ecx, DWORD PTR [rdi+76]
  00405	41 8b d2	 mov	 edx, r10d
  00408	45 2b c2	 sub	 r8d, r10d
  0040b	48 03 53 10	 add	 rdx, QWORD PTR [rbx+16]
  0040f	e8 00 00 00 00	 call	 crc32
  00414	89 47 4c	 mov	 DWORD PTR [rdi+76], eax
$LN54@deflate:

; 783  :             if (s->gzindex == s->gzhead->extra_len) {

  00417	48 8b 43 30	 mov	 rax, QWORD PTR [rbx+48]
  0041b	8b 48 18	 mov	 ecx, DWORD PTR [rax+24]
  0041e	39 4b 38	 cmp	 DWORD PTR [rbx+56], ecx
  00421	75 0a		 jne	 SHORT $LN52@deflate

; 784  :                 s->gzindex = 0;

  00423	89 6b 38	 mov	 DWORD PTR [rbx+56], ebp
$LN60@deflate:

; 785  :                 s->status = NAME_STATE;
; 786  :             }
; 787  :         }
; 788  :         else
; 789  :             s->status = NAME_STATE;

  00426	c7 43 08 49 00
	00 00		 mov	 DWORD PTR [rbx+8], 73	; 00000049H
$LN52@deflate:

; 790  :     }
; 791  :     if (s->status == NAME_STATE) {

  0042d	83 7b 08 49	 cmp	 DWORD PTR [rbx+8], 73	; 00000049H
  00431	48 89 74 24 48	 mov	 QWORD PTR [rsp+72], rsi
  00436	0f 85 b5 00 00
	00		 jne	 $LN41@deflate

; 792  :         if (s->gzhead->name != Z_NULL) {

  0043c	48 8b 43 30	 mov	 rax, QWORD PTR [rbx+48]
  00440	48 39 68 20	 cmp	 QWORD PTR [rax+32], rbp
  00444	0f 84 a0 00 00
	00		 je	 $LN50@deflate

; 793  :             uInt beg = s->pending;  /* start of bytes to update crc */

  0044a	8b 53 28	 mov	 edx, DWORD PTR [rbx+40]
  0044d	0f 1f 00	 npad	 3
$LL49@deflate:

; 794  :             int val;
; 795  : 
; 796  :             do {
; 797  :                 if (s->pending == s->pending_buf_size) {

  00450	44 8b 43 28	 mov	 r8d, DWORD PTR [rbx+40]
  00454	44 3b 43 18	 cmp	 r8d, DWORD PTR [rbx+24]
  00458	75 37		 jne	 SHORT $LN44@deflate

; 798  :                     if (s->gzhead->hcrc && s->pending > beg)

  0045a	48 8b 43 30	 mov	 rax, QWORD PTR [rbx+48]
  0045e	39 68 3c	 cmp	 DWORD PTR [rax+60], ebp
  00461	74 19		 je	 SHORT $LN45@deflate
  00463	44 3b c2	 cmp	 r8d, edx
  00466	76 14		 jbe	 SHORT $LN45@deflate

; 799  :                         strm->adler = crc32(strm->adler, s->pending_buf + beg,
; 800  :                                             s->pending - beg);

  00468	8b 4f 4c	 mov	 ecx, DWORD PTR [rdi+76]
  0046b	44 2b c2	 sub	 r8d, edx
  0046e	8b d2		 mov	 edx, edx
  00470	48 03 53 10	 add	 rdx, QWORD PTR [rbx+16]
  00474	e8 00 00 00 00	 call	 crc32
  00479	89 47 4c	 mov	 DWORD PTR [rdi+76], eax
$LN45@deflate:

; 801  :                     flush_pending(strm);

  0047c	48 8b cf	 mov	 rcx, rdi
  0047f	e8 00 00 00 00	 call	 flush_pending

; 802  :                     beg = s->pending;

  00484	44 8b 43 28	 mov	 r8d, DWORD PTR [rbx+40]
  00488	41 8b d0	 mov	 edx, r8d

; 803  :                     if (s->pending == s->pending_buf_size) {

  0048b	44 3b 43 18	 cmp	 r8d, DWORD PTR [rbx+24]
  0048f	74 29		 je	 SHORT $LN102@deflate
$LN44@deflate:

; 805  :                         break;
; 806  :                     }
; 807  :                 }
; 808  :                 val = s->gzhead->name[s->gzindex++];

  00491	8b 4b 38	 mov	 ecx, DWORD PTR [rbx+56]
  00494	48 8b 43 30	 mov	 rax, QWORD PTR [rbx+48]
  00498	48 8b 40 20	 mov	 rax, QWORD PTR [rax+32]
  0049c	0f b6 34 08	 movzx	 esi, BYTE PTR [rax+rcx]
  004a0	8d 41 01	 lea	 eax, DWORD PTR [rcx+1]

; 809  :                 put_byte(s, val);

  004a3	41 8b c8	 mov	 ecx, r8d
  004a6	89 43 38	 mov	 DWORD PTR [rbx+56], eax
  004a9	48 8b 43 10	 mov	 rax, QWORD PTR [rbx+16]
  004ad	40 88 34 01	 mov	 BYTE PTR [rcx+rax], sil
  004b1	ff 43 28	 inc	 DWORD PTR [rbx+40]

; 810  :             } while (val != 0);

  004b4	85 f6		 test	 esi, esi
  004b6	75 98		 jne	 SHORT $LL49@deflate
  004b8	eb 05		 jmp	 SHORT $LN47@deflate
$LN102@deflate:

; 804  :                         val = 1;

  004ba	be 01 00 00 00	 mov	 esi, 1
$LN47@deflate:

; 811  :             if (s->gzhead->hcrc && s->pending > beg)

  004bf	48 8b 43 30	 mov	 rax, QWORD PTR [rbx+48]
  004c3	39 68 3c	 cmp	 DWORD PTR [rax+60], ebp
  004c6	74 1b		 je	 SHORT $LN43@deflate
  004c8	44 8b 43 28	 mov	 r8d, DWORD PTR [rbx+40]
  004cc	44 3b c2	 cmp	 r8d, edx
  004cf	76 12		 jbe	 SHORT $LN43@deflate

; 812  :                 strm->adler = crc32(strm->adler, s->pending_buf + beg,
; 813  :                                     s->pending - beg);

  004d1	8b 4f 4c	 mov	 ecx, DWORD PTR [rdi+76]
  004d4	44 2b c2	 sub	 r8d, edx
  004d7	48 03 53 10	 add	 rdx, QWORD PTR [rbx+16]
  004db	e8 00 00 00 00	 call	 crc32
  004e0	89 47 4c	 mov	 DWORD PTR [rdi+76], eax
$LN43@deflate:

; 814  :             if (val == 0) {

  004e3	85 f6		 test	 esi, esi
  004e5	75 0a		 jne	 SHORT $LN41@deflate

; 815  :                 s->gzindex = 0;

  004e7	89 6b 38	 mov	 DWORD PTR [rbx+56], ebp
$LN50@deflate:

; 816  :                 s->status = COMMENT_STATE;
; 817  :             }
; 818  :         }
; 819  :         else
; 820  :             s->status = COMMENT_STATE;

  004ea	c7 43 08 5b 00
	00 00		 mov	 DWORD PTR [rbx+8], 91	; 0000005bH
$LN41@deflate:

; 821  :     }
; 822  :     if (s->status == COMMENT_STATE) {

  004f1	83 7b 08 5b	 cmp	 DWORD PTR [rbx+8], 91	; 0000005bH
  004f5	0f 85 b3 00 00
	00		 jne	 $LN30@deflate

; 823  :         if (s->gzhead->comment != Z_NULL) {

  004fb	48 8b 43 30	 mov	 rax, QWORD PTR [rbx+48]
  004ff	48 39 68 30	 cmp	 QWORD PTR [rax+48], rbp
  00503	0f 84 9e 00 00
	00		 je	 $LN39@deflate

; 824  :             uInt beg = s->pending;  /* start of bytes to update crc */

  00509	8b 53 28	 mov	 edx, DWORD PTR [rbx+40]
  0050c	0f 1f 40 00	 npad	 4
$LL38@deflate:

; 825  :             int val;
; 826  : 
; 827  :             do {
; 828  :                 if (s->pending == s->pending_buf_size) {

  00510	44 8b 43 28	 mov	 r8d, DWORD PTR [rbx+40]
  00514	44 3b 43 18	 cmp	 r8d, DWORD PTR [rbx+24]
  00518	75 37		 jne	 SHORT $LN33@deflate

; 829  :                     if (s->gzhead->hcrc && s->pending > beg)

  0051a	48 8b 43 30	 mov	 rax, QWORD PTR [rbx+48]
  0051e	39 68 3c	 cmp	 DWORD PTR [rax+60], ebp
  00521	74 19		 je	 SHORT $LN34@deflate
  00523	44 3b c2	 cmp	 r8d, edx
  00526	76 14		 jbe	 SHORT $LN34@deflate

; 830  :                         strm->adler = crc32(strm->adler, s->pending_buf + beg,
; 831  :                                             s->pending - beg);

  00528	8b 4f 4c	 mov	 ecx, DWORD PTR [rdi+76]
  0052b	44 2b c2	 sub	 r8d, edx
  0052e	8b d2		 mov	 edx, edx
  00530	48 03 53 10	 add	 rdx, QWORD PTR [rbx+16]
  00534	e8 00 00 00 00	 call	 crc32
  00539	89 47 4c	 mov	 DWORD PTR [rdi+76], eax
$LN34@deflate:

; 832  :                     flush_pending(strm);

  0053c	48 8b cf	 mov	 rcx, rdi
  0053f	e8 00 00 00 00	 call	 flush_pending

; 833  :                     beg = s->pending;

  00544	44 8b 43 28	 mov	 r8d, DWORD PTR [rbx+40]
  00548	41 8b d0	 mov	 edx, r8d

; 834  :                     if (s->pending == s->pending_buf_size) {

  0054b	44 3b 43 18	 cmp	 r8d, DWORD PTR [rbx+24]
  0054f	74 29		 je	 SHORT $LN103@deflate
$LN33@deflate:

; 836  :                         break;
; 837  :                     }
; 838  :                 }
; 839  :                 val = s->gzhead->comment[s->gzindex++];

  00551	8b 4b 38	 mov	 ecx, DWORD PTR [rbx+56]
  00554	48 8b 43 30	 mov	 rax, QWORD PTR [rbx+48]
  00558	48 8b 40 30	 mov	 rax, QWORD PTR [rax+48]
  0055c	0f b6 34 08	 movzx	 esi, BYTE PTR [rax+rcx]
  00560	8d 41 01	 lea	 eax, DWORD PTR [rcx+1]

; 840  :                 put_byte(s, val);

  00563	41 8b c8	 mov	 ecx, r8d
  00566	89 43 38	 mov	 DWORD PTR [rbx+56], eax
  00569	48 8b 43 10	 mov	 rax, QWORD PTR [rbx+16]
  0056d	40 88 34 01	 mov	 BYTE PTR [rcx+rax], sil
  00571	ff 43 28	 inc	 DWORD PTR [rbx+40]

; 841  :             } while (val != 0);

  00574	85 f6		 test	 esi, esi
  00576	75 98		 jne	 SHORT $LL38@deflate
  00578	eb 05		 jmp	 SHORT $LN36@deflate
$LN103@deflate:

; 835  :                         val = 1;

  0057a	be 01 00 00 00	 mov	 esi, 1
$LN36@deflate:

; 842  :             if (s->gzhead->hcrc && s->pending > beg)

  0057f	48 8b 43 30	 mov	 rax, QWORD PTR [rbx+48]
  00583	39 68 3c	 cmp	 DWORD PTR [rax+60], ebp
  00586	74 1b		 je	 SHORT $LN32@deflate
  00588	44 8b 43 28	 mov	 r8d, DWORD PTR [rbx+40]
  0058c	44 3b c2	 cmp	 r8d, edx
  0058f	76 12		 jbe	 SHORT $LN32@deflate

; 843  :                 strm->adler = crc32(strm->adler, s->pending_buf + beg,
; 844  :                                     s->pending - beg);

  00591	8b 4f 4c	 mov	 ecx, DWORD PTR [rdi+76]
  00594	44 2b c2	 sub	 r8d, edx
  00597	48 03 53 10	 add	 rdx, QWORD PTR [rbx+16]
  0059b	e8 00 00 00 00	 call	 crc32
  005a0	89 47 4c	 mov	 DWORD PTR [rdi+76], eax
$LN32@deflate:

; 845  :             if (val == 0)

  005a3	85 f6		 test	 esi, esi
  005a5	75 07		 jne	 SHORT $LN30@deflate
$LN39@deflate:

; 846  :                 s->status = HCRC_STATE;
; 847  :         }
; 848  :         else
; 849  :             s->status = HCRC_STATE;

  005a7	c7 43 08 67 00
	00 00		 mov	 DWORD PTR [rbx+8], 103	; 00000067H
$LN30@deflate:

; 850  :     }
; 851  :     if (s->status == HCRC_STATE) {

  005ae	83 7b 08 67	 cmp	 DWORD PTR [rbx+8], 103	; 00000067H
  005b2	48 8b 74 24 48	 mov	 rsi, QWORD PTR [rsp+72]
  005b7	75 5e		 jne	 SHORT $LN25@deflate

; 852  :         if (s->gzhead->hcrc) {

  005b9	48 8b 43 30	 mov	 rax, QWORD PTR [rbx+48]
  005bd	39 68 3c	 cmp	 DWORD PTR [rax+60], ebp
  005c0	74 4e		 je	 SHORT $LN28@deflate

; 853  :             if (s->pending + 2 > s->pending_buf_size)

  005c2	8b 43 28	 mov	 eax, DWORD PTR [rbx+40]
  005c5	83 c0 02	 add	 eax, 2
  005c8	3b 43 18	 cmp	 eax, DWORD PTR [rbx+24]
  005cb	76 08		 jbe	 SHORT $LN27@deflate

; 854  :                 flush_pending(strm);

  005cd	48 8b cf	 mov	 rcx, rdi
  005d0	e8 00 00 00 00	 call	 flush_pending
$LN27@deflate:

; 855  :             if (s->pending + 2 <= s->pending_buf_size) {

  005d5	8b 4b 28	 mov	 ecx, DWORD PTR [rbx+40]
  005d8	8d 41 02	 lea	 eax, DWORD PTR [rcx+2]
  005db	3b 43 18	 cmp	 eax, DWORD PTR [rbx+24]
  005de	77 37		 ja	 SHORT $LN25@deflate

; 856  :                 put_byte(s, (Byte)(strm->adler & 0xff));

  005e0	0f b6 47 4c	 movzx	 eax, BYTE PTR [rdi+76]
  005e4	8b d1		 mov	 edx, ecx
  005e6	48 8b 4b 10	 mov	 rcx, QWORD PTR [rbx+16]
  005ea	88 04 0a	 mov	 BYTE PTR [rdx+rcx], al
  005ed	ff 43 28	 inc	 DWORD PTR [rbx+40]
  005f0	8b 53 28	 mov	 edx, DWORD PTR [rbx+40]

; 857  :                 put_byte(s, (Byte)((strm->adler >> 8) & 0xff));

  005f3	48 8b 4b 10	 mov	 rcx, QWORD PTR [rbx+16]
  005f7	0f b6 47 4d	 movzx	 eax, BYTE PTR [rdi+77]

; 858  :                 strm->adler = crc32(0L, Z_NULL, 0);

  005fb	45 33 c0	 xor	 r8d, r8d
  005fe	88 04 0a	 mov	 BYTE PTR [rdx+rcx], al
  00601	ff 43 28	 inc	 DWORD PTR [rbx+40]
  00604	33 d2		 xor	 edx, edx
  00606	33 c9		 xor	 ecx, ecx
  00608	e8 00 00 00 00	 call	 crc32
  0060d	89 47 4c	 mov	 DWORD PTR [rdi+76], eax
$LN28@deflate:

; 859  :                 s->status = BUSY_STATE;
; 860  :             }
; 861  :         }
; 862  :         else
; 863  :             s->status = BUSY_STATE;

  00610	c7 43 08 71 00
	00 00		 mov	 DWORD PTR [rbx+8], 113	; 00000071H
$LN25@deflate:

; 864  :     }
; 865  : #endif
; 866  : 
; 867  :     /* Flush as much pending output as possible */
; 868  :     if (s->pending != 0) {

  00617	39 6b 28	 cmp	 DWORD PTR [rbx+40], ebp
  0061a	74 29		 je	 SHORT $LN24@deflate

; 869  :         flush_pending(strm);

  0061c	48 8b cf	 mov	 rcx, rdi
  0061f	e8 00 00 00 00	 call	 flush_pending

; 870  :         if (strm->avail_out == 0) {

  00624	39 6f 18	 cmp	 DWORD PTR [rdi+24], ebp
  00627	75 52		 jne	 SHORT $LN21@deflate
$LN110@deflate:

; 871  :             /* Since avail_out is 0, deflate will be called again with
; 872  :              * more output space, but possibly with both pending and
; 873  :              * avail_in equal to zero. There won't be anything to do,
; 874  :              * but this is not an error situation so make sure we
; 875  :              * return OK instead of BUF_ERROR at next call of deflate:
; 876  :              */
; 877  :             s->last_flush = -1;

  00629	c7 43 40 ff ff
	ff ff		 mov	 DWORD PTR [rbx+64], -1
$LN13@deflate:

; 878  :             return Z_OK;

  00630	33 c0		 xor	 eax, eax
$LN107@deflate:
  00632	48 8b 6c 24 40	 mov	 rbp, QWORD PTR [rsp+64]
  00637	4c 8b 6c 24 50	 mov	 r13, QWORD PTR [rsp+80]

; 974  : }

  0063c	48 83 c4 20	 add	 rsp, 32			; 00000020H
  00640	41 5c		 pop	 r12
  00642	5f		 pop	 rdi
  00643	5b		 pop	 rbx
  00644	c3		 ret	 0
$LN24@deflate:

; 879  :         }
; 880  : 
; 881  :     /* Make sure there is something to do and avoid duplicate consecutive
; 882  :      * flushes. For repeated and useless calls with Z_FINISH, we keep
; 883  :      * returning Z_STREAM_END instead of Z_BUF_ERROR.
; 884  :      */
; 885  :     } else if (strm->avail_in == 0 && RANK(flush) <= RANK(old_flush) &&
; 886  :                flush != Z_FINISH) {

  00645	39 6f 08	 cmp	 DWORD PTR [rdi+8], ebp
  00648	75 31		 jne	 SHORT $LN21@deflate
  0064a	41 83 fd 04	 cmp	 r13d, 4
  0064e	41 b8 09 00 00
	00		 mov	 r8d, 9
  00654	8b c5		 mov	 eax, ebp
  00656	41 0f 4f c0	 cmovg	 eax, r8d
  0065a	43 8d 54 2d 00	 lea	 edx, DWORD PTR [r13+r13]
  0065f	8b cd		 mov	 ecx, ebp
  00661	2b d0		 sub	 edx, eax
  00663	41 83 fc 04	 cmp	 r12d, 4
  00667	43 8d 04 24	 lea	 eax, DWORD PTR [r12+r12]
  0066b	41 0f 4f c8	 cmovg	 ecx, r8d
  0066f	2b c1		 sub	 eax, ecx
  00671	3b c2		 cmp	 eax, edx
  00673	7f 06		 jg	 SHORT $LN21@deflate
  00675	41 83 fc 04	 cmp	 r12d, 4

; 887  :         ERR_RETURN(strm, Z_BUF_ERROR);

  00679	75 0f		 jne	 SHORT $LN111@deflate
$LN21@deflate:

; 888  :     }
; 889  : 
; 890  :     /* User must not provide more input after the first FINISH: */
; 891  :     if (s->status == FINISH_STATE && strm->avail_in != 0) {

  0067b	8b 43 08	 mov	 eax, DWORD PTR [rbx+8]
  0067e	3d 9a 02 00 00	 cmp	 eax, 666		; 0000029aH
  00683	75 17		 jne	 SHORT $LN20@deflate
  00685	39 6f 08	 cmp	 DWORD PTR [rdi+8], ebp
  00688	74 17		 je	 SHORT $LN109@deflate
$LN111@deflate:

; 892  :         ERR_RETURN(strm, Z_BUF_ERROR);

  0068a	48 8d 05 00 00
	00 00		 lea	 rax, OFFSET FLAT:??_C@_0N@DFPGLBGC@buffer?5error?$AA@
  00691	48 89 47 20	 mov	 QWORD PTR [rdi+32], rax
  00695	b8 fb ff ff ff	 mov	 eax, -5
  0069a	eb 96		 jmp	 SHORT $LN107@deflate
$LN20@deflate:

; 893  :     }
; 894  : 
; 895  :     /* Start a new block or continue the current one.
; 896  :      */
; 897  :     if (strm->avail_in != 0 || s->lookahead != 0 ||
; 898  :         (flush != Z_NO_FLUSH && s->status != FINISH_STATE)) {

  0069c	39 6f 08	 cmp	 DWORD PTR [rdi+8], ebp
  0069f	75 1c		 jne	 SHORT $LN18@deflate
$LN109@deflate:
  006a1	39 ab 9c 00 00
	00		 cmp	 DWORD PTR [rbx+156], ebp
  006a7	75 14		 jne	 SHORT $LN18@deflate
  006a9	45 85 e4	 test	 r12d, r12d
  006ac	0f 84 e3 00 00
	00		 je	 $LN6@deflate
  006b2	3d 9a 02 00 00	 cmp	 eax, 666		; 0000029aH
  006b7	0f 84 d8 00 00
	00		 je	 $LN6@deflate
$LN18@deflate:

; 899  :         block_state bstate;
; 900  : 
; 901  :         bstate = s->strategy == Z_HUFFMAN_ONLY ? deflate_huff(s, flush) :
; 902  :                     (s->strategy == Z_RLE ? deflate_rle(s, flush) :
; 903  :                         (*(configuration_table[s->level].func))(s, flush));

  006bd	8b 83 b0 00 00
	00		 mov	 eax, DWORD PTR [rbx+176]
  006c3	41 8b d4	 mov	 edx, r12d
  006c6	48 8b cb	 mov	 rcx, rbx
  006c9	83 f8 02	 cmp	 eax, 2
  006cc	75 07		 jne	 SHORT $LN96@deflate
  006ce	e8 00 00 00 00	 call	 deflate_huff
  006d3	eb 21		 jmp	 SHORT $LN95@deflate
$LN96@deflate:
  006d5	83 f8 03	 cmp	 eax, 3
  006d8	75 07		 jne	 SHORT $LN94@deflate
  006da	e8 00 00 00 00	 call	 deflate_rle
  006df	eb 15		 jmp	 SHORT $LN95@deflate
$LN94@deflate:
  006e1	48 63 83 ac 00
	00 00		 movsxd	 rax, DWORD PTR [rbx+172]
  006e8	4c 8d 05 08 00
	00 00		 lea	 r8, OFFSET FLAT:configuration_table+8
  006ef	48 03 c0	 add	 rax, rax
  006f2	41 ff 14 c0	 call	 QWORD PTR [r8+rax*8]
$LN95@deflate:

; 904  : 
; 905  :         if (bstate == finish_started || bstate == finish_done) {

  006f6	83 f8 02	 cmp	 eax, 2
  006f9	74 05		 je	 SHORT $LN16@deflate
  006fb	83 f8 03	 cmp	 eax, 3
  006fe	75 07		 jne	 SHORT $LN17@deflate
$LN16@deflate:

; 906  :             s->status = FINISH_STATE;

  00700	c7 43 08 9a 02
	00 00		 mov	 DWORD PTR [rbx+8], 666	; 0000029aH
$LN17@deflate:

; 907  :         }
; 908  :         if (bstate == need_more || bstate == finish_started) {

  00707	85 c0		 test	 eax, eax
  00709	0f 84 6f 01 00
	00		 je	 $LN14@deflate
  0070f	83 f8 02	 cmp	 eax, 2
  00712	0f 84 66 01 00
	00		 je	 $LN14@deflate

; 913  :             /* If flush != Z_NO_FLUSH && avail_out == 0, the next call
; 914  :              * of deflate should use the same flush parameter to make sure
; 915  :              * that the flush is complete. So we don't have to output an
; 916  :              * empty block here, this will be done at next call. This also
; 917  :              * ensures that for a very small output buffer, we emit at most
; 918  :              * one empty block.
; 919  :              */
; 920  :         }
; 921  :         if (bstate == block_done) {

  00718	83 f8 01	 cmp	 eax, 1
  0071b	75 78		 jne	 SHORT $LN6@deflate

; 922  :             if (flush == Z_PARTIAL_FLUSH) {

  0071d	44 3b e0	 cmp	 r12d, eax
  00720	75 0a		 jne	 SHORT $LN11@deflate

; 923  :                 _tr_align(s);

  00722	48 8b cb	 mov	 rcx, rbx
  00725	e8 00 00 00 00	 call	 _tr_align
  0072a	eb 58		 jmp	 SHORT $LN7@deflate
$LN11@deflate:

; 924  :             } else if (flush != Z_BLOCK) { /* FULL_FLUSH or SYNC_FLUSH */

  0072c	41 83 fc 05	 cmp	 r12d, 5
  00730	74 52		 je	 SHORT $LN7@deflate

; 925  :                 _tr_stored_block(s, (char*)0, 0L, 0);

  00732	45 33 c9	 xor	 r9d, r9d
  00735	45 33 c0	 xor	 r8d, r8d
  00738	33 d2		 xor	 edx, edx
  0073a	48 8b cb	 mov	 rcx, rbx
  0073d	e8 00 00 00 00	 call	 _tr_stored_block

; 926  :                 /* For a full flush, this empty block will be recognized
; 927  :                  * as a special marker by inflate_sync().
; 928  :                  */
; 929  :                 if (flush == Z_FULL_FLUSH) {

  00742	41 83 fc 03	 cmp	 r12d, 3
  00746	75 3c		 jne	 SHORT $LN7@deflate

; 930  :                     CLEAR_HASH(s);             /* forget history */

  00748	8b 4b 74	 mov	 ecx, DWORD PTR [rbx+116]
  0074b	48 8b 43 68	 mov	 rax, QWORD PTR [rbx+104]
  0074f	33 d2		 xor	 edx, edx
  00751	ff c9		 dec	 ecx
  00753	66 89 2c 48	 mov	 WORD PTR [rax+rcx*2], bp
  00757	44 8b 43 74	 mov	 r8d, DWORD PTR [rbx+116]
  0075b	48 8b 4b 68	 mov	 rcx, QWORD PTR [rbx+104]
  0075f	41 ff c8	 dec	 r8d
  00762	4d 03 c0	 add	 r8, r8
  00765	e8 00 00 00 00	 call	 memset

; 931  :                     if (s->lookahead == 0) {

  0076a	39 ab 9c 00 00
	00		 cmp	 DWORD PTR [rbx+156], ebp
  00770	75 12		 jne	 SHORT $LN7@deflate

; 932  :                         s->strstart = 0;

  00772	89 ab 94 00 00
	00		 mov	 DWORD PTR [rbx+148], ebp

; 933  :                         s->block_start = 0L;

  00778	89 ab 84 00 00
	00		 mov	 DWORD PTR [rbx+132], ebp

; 934  :                         s->insert = 0;

  0077e	89 ab 0c 17 00
	00		 mov	 DWORD PTR [rbx+5900], ebp
$LN7@deflate:

; 935  :                     }
; 936  :                 }
; 937  :             }
; 938  :             flush_pending(strm);

  00784	48 8b cf	 mov	 rcx, rdi
  00787	e8 00 00 00 00	 call	 flush_pending

; 939  :             if (strm->avail_out == 0) {

  0078c	39 6f 18	 cmp	 DWORD PTR [rdi+24], ebp

; 940  :               s->last_flush = -1; /* avoid BUF_ERROR at next call, see above */
; 941  :               return Z_OK;

  0078f	0f 84 94 fe ff
	ff		 je	 $LN110@deflate
$LN6@deflate:

; 942  :             }
; 943  :         }
; 944  :     }
; 945  :     Assert(strm->avail_out > 0, "bug2");
; 946  : 
; 947  :     if (flush != Z_FINISH) return Z_OK;

  00795	41 83 fc 04	 cmp	 r12d, 4
  00799	0f 85 91 fe ff
	ff		 jne	 $LN13@deflate

; 948  :     if (s->wrap <= 0) return Z_STREAM_END;

  0079f	8b 4b 2c	 mov	 ecx, DWORD PTR [rbx+44]
  007a2	85 c9		 test	 ecx, ecx
  007a4	7f 0a		 jg	 SHORT $LN4@deflate
  007a6	41 8d 44 24 fd	 lea	 eax, QWORD PTR [r12-3]
  007ab	e9 82 fe ff ff	 jmp	 $LN107@deflate
$LN4@deflate:

; 949  : 
; 950  :     /* Write the trailer */
; 951  : #ifdef GZIP
; 952  :     if (s->wrap == 2) {

  007b0	83 f9 02	 cmp	 ecx, 2
  007b3	0f 85 8a 00 00
	00		 jne	 $LN3@deflate

; 953  :         put_byte(s, (Byte)(strm->adler & 0xff));

  007b9	8b 53 28	 mov	 edx, DWORD PTR [rbx+40]
  007bc	0f b6 47 4c	 movzx	 eax, BYTE PTR [rdi+76]
  007c0	48 8b 4b 10	 mov	 rcx, QWORD PTR [rbx+16]
  007c4	88 04 0a	 mov	 BYTE PTR [rdx+rcx], al
  007c7	ff 43 28	 inc	 DWORD PTR [rbx+40]
  007ca	8b 53 28	 mov	 edx, DWORD PTR [rbx+40]

; 954  :         put_byte(s, (Byte)((strm->adler >> 8) & 0xff));

  007cd	0f b6 47 4d	 movzx	 eax, BYTE PTR [rdi+77]
  007d1	48 8b 4b 10	 mov	 rcx, QWORD PTR [rbx+16]
  007d5	88 04 0a	 mov	 BYTE PTR [rdx+rcx], al
  007d8	ff 43 28	 inc	 DWORD PTR [rbx+40]
  007db	8b 53 28	 mov	 edx, DWORD PTR [rbx+40]

; 955  :         put_byte(s, (Byte)((strm->adler >> 16) & 0xff));

  007de	0f b6 47 4e	 movzx	 eax, BYTE PTR [rdi+78]
  007e2	48 8b 4b 10	 mov	 rcx, QWORD PTR [rbx+16]
  007e6	88 04 0a	 mov	 BYTE PTR [rdx+rcx], al
  007e9	ff 43 28	 inc	 DWORD PTR [rbx+40]
  007ec	8b 53 28	 mov	 edx, DWORD PTR [rbx+40]

; 956  :         put_byte(s, (Byte)((strm->adler >> 24) & 0xff));

  007ef	0f b6 47 4f	 movzx	 eax, BYTE PTR [rdi+79]
  007f3	48 8b 4b 10	 mov	 rcx, QWORD PTR [rbx+16]
  007f7	88 04 0a	 mov	 BYTE PTR [rdx+rcx], al
  007fa	ff 43 28	 inc	 DWORD PTR [rbx+40]
  007fd	8b 53 28	 mov	 edx, DWORD PTR [rbx+40]

; 957  :         put_byte(s, (Byte)(strm->total_in & 0xff));

  00800	0f b6 47 0c	 movzx	 eax, BYTE PTR [rdi+12]
  00804	48 8b 4b 10	 mov	 rcx, QWORD PTR [rbx+16]
  00808	88 04 0a	 mov	 BYTE PTR [rdx+rcx], al
  0080b	ff 43 28	 inc	 DWORD PTR [rbx+40]
  0080e	8b 53 28	 mov	 edx, DWORD PTR [rbx+40]

; 958  :         put_byte(s, (Byte)((strm->total_in >> 8) & 0xff));

  00811	0f b6 47 0d	 movzx	 eax, BYTE PTR [rdi+13]
  00815	48 8b 4b 10	 mov	 rcx, QWORD PTR [rbx+16]
  00819	88 04 0a	 mov	 BYTE PTR [rdx+rcx], al
  0081c	ff 43 28	 inc	 DWORD PTR [rbx+40]
  0081f	8b 53 28	 mov	 edx, DWORD PTR [rbx+40]

; 959  :         put_byte(s, (Byte)((strm->total_in >> 16) & 0xff));

  00822	0f b6 47 0e	 movzx	 eax, BYTE PTR [rdi+14]
  00826	48 8b 4b 10	 mov	 rcx, QWORD PTR [rbx+16]
  0082a	88 04 0a	 mov	 BYTE PTR [rdx+rcx], al
  0082d	ff 43 28	 inc	 DWORD PTR [rbx+40]
  00830	8b 53 28	 mov	 edx, DWORD PTR [rbx+40]

; 960  :         put_byte(s, (Byte)((strm->total_in >> 24) & 0xff));

  00833	0f b6 47 0f	 movzx	 eax, BYTE PTR [rdi+15]
  00837	48 8b 4b 10	 mov	 rcx, QWORD PTR [rbx+16]
  0083b	88 04 0a	 mov	 BYTE PTR [rdx+rcx], al
  0083e	ff 43 28	 inc	 DWORD PTR [rbx+40]

; 961  :     }
; 962  :     else

  00841	eb 15		 jmp	 SHORT $LN2@deflate
$LN3@deflate:

; 963  : #endif
; 964  :     {
; 965  :         putShortMSB(s, (uInt)(strm->adler >> 16));

  00843	0f b7 57 4e	 movzx	 edx, WORD PTR [rdi+78]
  00847	48 8b cb	 mov	 rcx, rbx
  0084a	e8 00 00 00 00	 call	 putShortMSB

; 966  :         putShortMSB(s, (uInt)(strm->adler & 0xffff));

  0084f	0f b7 57 4c	 movzx	 edx, WORD PTR [rdi+76]
  00853	e8 00 00 00 00	 call	 putShortMSB
$LN2@deflate:

; 967  :     }
; 968  :     flush_pending(strm);

  00858	48 8b cf	 mov	 rcx, rdi
  0085b	e8 00 00 00 00	 call	 flush_pending

; 969  :     /* If avail_out is zero, the application will call deflate again
; 970  :      * to flush the rest.
; 971  :      */
; 972  :     if (s->wrap > 0) s->wrap = -s->wrap; /* write the trailer only once! */

  00860	44 8b 5b 2c	 mov	 r11d, DWORD PTR [rbx+44]
  00864	45 85 db	 test	 r11d, r11d
  00867	7e 07		 jle	 SHORT $LN1@deflate
  00869	41 f7 db	 neg	 r11d
  0086c	44 89 5b 2c	 mov	 DWORD PTR [rbx+44], r11d
$LN1@deflate:

; 973  :     return s->pending != 0 ? Z_OK : Z_STREAM_END;

  00870	39 6b 28	 cmp	 DWORD PTR [rbx+40], ebp
  00873	40 0f 94 c5	 sete	 bpl
  00877	8b c5		 mov	 eax, ebp
  00879	e9 b4 fd ff ff	 jmp	 $LN107@deflate
$LN14@deflate:

; 909  :             if (strm->avail_out == 0) {

  0087e	39 6f 18	 cmp	 DWORD PTR [rdi+24], ebp
  00881	0f 85 a9 fd ff
	ff		 jne	 $LN13@deflate

; 910  :                 s->last_flush = -1; /* avoid BUF_ERROR next call, see above */
; 911  :             }
; 912  :             return Z_OK;

  00887	e9 9d fd ff ff	 jmp	 $LN110@deflate
$LN80@deflate:

; 679  :         ERR_RETURN(strm, Z_STREAM_ERROR);

  0088c	48 8d 05 00 00
	00 00		 lea	 rax, OFFSET FLAT:??_C@_0N@MKKNPMJD@stream?5error?$AA@
  00893	48 89 41 20	 mov	 QWORD PTR [rcx+32], rax
$LN82@deflate:
  00897	b8 fe ff ff ff	 mov	 eax, -2

; 974  : }

  0089c	48 83 c4 20	 add	 rsp, 32			; 00000020H
  008a0	41 5c		 pop	 r12
  008a2	5f		 pop	 rdi
  008a3	5b		 pop	 rbx
  008a4	c3		 ret	 0
deflate	ENDP
_TEXT	ENDS
PUBLIC	deflateParams
;	COMDAT pdata
pdata	SEGMENT
$pdata$deflateParams DD imagerel $LN13
	DD	imagerel $LN13+84
	DD	imagerel $unwind$deflateParams
pdata	ENDS
;	COMDAT pdata
pdata	SEGMENT
$pdata$0$deflateParams DD imagerel $LN13+84
	DD	imagerel $LN13+248
	DD	imagerel $chain$0$deflateParams
pdata	ENDS
;	COMDAT pdata
pdata	SEGMENT
$pdata$1$deflateParams DD imagerel $LN13+248
	DD	imagerel $LN13+269
	DD	imagerel $chain$1$deflateParams
pdata	ENDS
;	COMDAT xdata
xdata	SEGMENT
$chain$1$deflateParams DD 021H
	DD	imagerel $LN13
	DD	imagerel $LN13+84
	DD	imagerel $unwind$deflateParams
xdata	ENDS
;	COMDAT xdata
xdata	SEGMENT
$chain$0$deflateParams DD 020521H
	DD	065405H
	DD	imagerel $LN13
	DD	imagerel $LN13+84
	DD	imagerel $unwind$deflateParams
xdata	ENDS
;	COMDAT xdata
xdata	SEGMENT
$unwind$deflateParams DD 060f01H
	DD	08640fH
	DD	07340fH
	DD	0700b320fH
; Function compile flags: /Ogtpy
xdata	ENDS
;	COMDAT deflateParams
_TEXT	SEGMENT
strm$ = 48
level$ = 56
strategy$ = 64
deflateParams PROC					; COMDAT

; 494  : {

$LN13:
  00000	48 89 5c 24 10	 mov	 QWORD PTR [rsp+16], rbx
  00005	48 89 74 24 18	 mov	 QWORD PTR [rsp+24], rsi
  0000a	57		 push	 rdi
  0000b	48 83 ec 20	 sub	 rsp, 32			; 00000020H
  0000f	41 8b f0	 mov	 esi, r8d

; 495  :     deflate_state *s;
; 496  :     compress_func func;
; 497  :     int err = Z_OK;

  00012	45 33 c0	 xor	 r8d, r8d
  00015	8b da		 mov	 ebx, edx
  00017	4c 8b c9	 mov	 r9, rcx

; 498  : 
; 499  :     if (strm == Z_NULL || strm->state == Z_NULL) return Z_STREAM_ERROR;

  0001a	48 85 c9	 test	 rcx, rcx
  0001d	0f 84 d5 00 00
	00		 je	 $LN7@deflatePar
  00023	48 8b 79 28	 mov	 rdi, QWORD PTR [rcx+40]
  00027	48 85 ff	 test	 rdi, rdi
  0002a	0f 84 c8 00 00
	00		 je	 $LN7@deflatePar

; 500  :     s = strm->state;
; 501  : 
; 502  : #ifdef FASTEST
; 503  :     if (level != 0) level = 1;
; 504  : #else
; 505  :     if (level == Z_DEFAULT_COMPRESSION) level = 6;

  00030	83 fa ff	 cmp	 edx, -1
  00033	75 05		 jne	 SHORT $LN6@deflatePar
  00035	8d 5a 07	 lea	 ebx, QWORD PTR [rdx+7]

; 506  : #endif
; 507  :     if (level < 0 || level > 9 || strategy < 0 || strategy > Z_FIXED) {

  00038	eb 11		 jmp	 SHORT $LN12@deflatePar
$LN6@deflatePar:
  0003a	85 d2		 test	 edx, edx
  0003c	0f 88 b6 00 00
	00		 js	 $LN7@deflatePar
  00042	83 fa 09	 cmp	 edx, 9
  00045	0f 8f ad 00 00
	00		 jg	 $LN7@deflatePar
$LN12@deflatePar:
  0004b	83 fe 04	 cmp	 esi, 4
  0004e	0f 87 a4 00 00
	00		 ja	 $LN7@deflatePar

; 508  :         return Z_STREAM_ERROR;
; 509  :     }
; 510  :     func = configuration_table[s->level].func;
; 511  : 
; 512  :     if ((strategy != s->strategy || func != configuration_table[level].func) &&
; 513  :         strm->total_in != 0) {

  00054	48 89 6c 24 30	 mov	 QWORD PTR [rsp+48], rbp
  00059	48 8d 2d 00 00
	00 00		 lea	 rbp, OFFSET FLAT:configuration_table
  00060	3b b7 b0 00 00
	00		 cmp	 esi, DWORD PTR [rdi+176]
  00066	75 1c		 jne	 SHORT $LN2@deflatePar
  00068	48 63 8f ac 00
	00 00		 movsxd	 rcx, DWORD PTR [rdi+172]
  0006f	48 63 c3	 movsxd	 rax, ebx
  00072	48 03 c0	 add	 rax, rax
  00075	48 03 c9	 add	 rcx, rcx
  00078	48 8b 44 c5 08	 mov	 rax, QWORD PTR [rbp+rax*8+8]
  0007d	48 39 44 cd 08	 cmp	 QWORD PTR [rbp+rcx*8+8], rax
  00082	74 16		 je	 SHORT $LN3@deflatePar
$LN2@deflatePar:
  00084	45 39 41 0c	 cmp	 DWORD PTR [r9+12], r8d
  00088	74 10		 je	 SHORT $LN3@deflatePar

; 514  :         /* Flush the last buffer: */
; 515  :         err = deflate(strm, Z_BLOCK);

  0008a	ba 05 00 00 00	 mov	 edx, 5
  0008f	49 8b c9	 mov	 rcx, r9
  00092	e8 00 00 00 00	 call	 deflate
  00097	44 8b c0	 mov	 r8d, eax
$LN3@deflatePar:

; 516  :     }
; 517  :     if (s->level != level) {

  0009a	39 9f ac 00 00
	00		 cmp	 DWORD PTR [rdi+172], ebx
  000a0	74 38		 je	 SHORT $LN1@deflatePar

; 518  :         s->level = level;

  000a2	89 9f ac 00 00
	00		 mov	 DWORD PTR [rdi+172], ebx

; 519  :         s->max_lazy_match   = configuration_table[level].max_lazy;

  000a8	48 63 d3	 movsxd	 rdx, ebx
  000ab	48 03 d2	 add	 rdx, rdx
  000ae	0f b7 4c d5 02	 movzx	 ecx, WORD PTR [rbp+rdx*8+2]
  000b3	89 8f a8 00 00
	00		 mov	 DWORD PTR [rdi+168], ecx

; 520  :         s->good_match       = configuration_table[level].good_length;

  000b9	0f b7 44 d5 00	 movzx	 eax, WORD PTR [rbp+rdx*8]
  000be	89 87 b4 00 00
	00		 mov	 DWORD PTR [rdi+180], eax

; 521  :         s->nice_match       = configuration_table[level].nice_length;

  000c4	0f b7 44 d5 04	 movzx	 eax, WORD PTR [rbp+rdx*8+4]
  000c9	89 87 b8 00 00
	00		 mov	 DWORD PTR [rdi+184], eax

; 522  :         s->max_chain_length = configuration_table[level].max_chain;

  000cf	0f b7 44 d5 06	 movzx	 eax, WORD PTR [rbp+rdx*8+6]
  000d4	89 87 a4 00 00
	00		 mov	 DWORD PTR [rdi+164], eax
$LN1@deflatePar:

; 523  :     }
; 524  :     s->strategy = strategy;

  000da	48 8b 6c 24 30	 mov	 rbp, QWORD PTR [rsp+48]
  000df	89 b7 b0 00 00
	00		 mov	 DWORD PTR [rdi+176], esi

; 525  :     return err;

  000e5	41 8b c0	 mov	 eax, r8d

; 526  : }

  000e8	48 8b 5c 24 38	 mov	 rbx, QWORD PTR [rsp+56]
  000ed	48 8b 74 24 40	 mov	 rsi, QWORD PTR [rsp+64]
  000f2	48 83 c4 20	 add	 rsp, 32			; 00000020H
  000f6	5f		 pop	 rdi
  000f7	c3		 ret	 0
$LN7@deflatePar:
  000f8	48 8b 5c 24 38	 mov	 rbx, QWORD PTR [rsp+56]
  000fd	48 8b 74 24 40	 mov	 rsi, QWORD PTR [rsp+64]
  00102	b8 fe ff ff ff	 mov	 eax, -2
  00107	48 83 c4 20	 add	 rsp, 32			; 00000020H
  0010b	5f		 pop	 rdi
  0010c	c3		 ret	 0
deflateParams ENDP
END
