; Listing generated by Microsoft (R) Optimizing Compiler Version 16.00.30319.01 

include listing.inc

INCLUDELIB OLDNAMES

EXTRN	__imp_CreateFileW:PROC
EXTRN	__imp_CreateFileA:PROC
EXTRN	__imp_ReadFile:PROC
EXTRN	__imp_WriteFile:PROC
EXTRN	__imp_GetLastError:PROC
EXTRN	__imp_SetFilePointer:PROC
EXTRN	__imp_CloseHandle:PROC
PUBLIC	win32_error_file_func
; Function compile flags: /Ogtpy
; File c:\users\darrin\downloads\zlib127\zlib-1.2.7\contrib\minizip\iowin32.c
;	COMDAT win32_error_file_func
_TEXT	SEGMENT
opaque$ = 8
stream$ = 16
win32_error_file_func PROC				; COMDAT

; 333  :     int ret=-1;
; 334  :     if (stream!=NULL)

  00000	48 85 d2	 test	 rdx, rdx
  00003	74 04		 je	 SHORT $LN4@win32_erro

; 335  :     {
; 336  :         ret = ((WIN32FILE_IOWIN*)stream) -> error;
; 337  :     }
; 338  :     return ret;

  00005	8b 42 08	 mov	 eax, DWORD PTR [rdx+8]

; 339  : }

  00008	c3		 ret	 0
$LN4@win32_erro:

; 335  :     {
; 336  :         ret = ((WIN32FILE_IOWIN*)stream) -> error;
; 337  :     }
; 338  :     return ret;

  00009	83 c8 ff	 or	 eax, -1

; 339  : }

  0000c	c3		 ret	 0
win32_error_file_func ENDP
_TEXT	ENDS
PUBLIC	win32_close_file_func
;	COMDAT pdata
pdata	SEGMENT
$pdata$win32_close_file_func DD imagerel $LN6
	DD	imagerel $LN6+59
	DD	imagerel $unwind$win32_close_file_func
pdata	ENDS
;	COMDAT xdata
xdata	SEGMENT
$unwind$win32_close_file_func DD 040a01H
	DD	06340aH
	DD	07006320aH
; Function compile flags: /Ogtpy
xdata	ENDS
;	COMDAT win32_close_file_func
_TEXT	SEGMENT
opaque$ = 48
stream$ = 56
win32_close_file_func PROC				; COMDAT

; 314  : {

$LN6:
  00000	48 89 5c 24 08	 mov	 QWORD PTR [rsp+8], rbx
  00005	57		 push	 rdi
  00006	48 83 ec 20	 sub	 rsp, 32			; 00000020H

; 315  :     int ret=-1;

  0000a	83 cb ff	 or	 ebx, -1
  0000d	48 8b fa	 mov	 rdi, rdx

; 316  : 
; 317  :     if (stream!=NULL)

  00010	48 85 d2	 test	 rdx, rdx
  00013	74 19		 je	 SHORT $LN5@win32_clos

; 318  :     {
; 319  :         HANDLE hFile;
; 320  :         hFile = ((WIN32FILE_IOWIN*)stream) -> hf;

  00015	48 8b 0a	 mov	 rcx, QWORD PTR [rdx]

; 321  :         if (hFile != NULL)

  00018	48 85 c9	 test	 rcx, rcx
  0001b	74 08		 je	 SHORT $LN1@win32_clos

; 322  :         {
; 323  :             CloseHandle(hFile);

  0001d	ff 15 00 00 00
	00		 call	 QWORD PTR __imp_CloseHandle

; 324  :             ret=0;

  00023	33 db		 xor	 ebx, ebx
$LN1@win32_clos:

; 325  :         }
; 326  :         free(stream);

  00025	48 8b cf	 mov	 rcx, rdi
  00028	ff 15 00 00 00
	00		 call	 QWORD PTR __imp_free
$LN5@win32_clos:

; 327  :     }
; 328  :     return ret;

  0002e	8b c3		 mov	 eax, ebx

; 329  : }

  00030	48 8b 5c 24 30	 mov	 rbx, QWORD PTR [rsp+48]
  00035	48 83 c4 20	 add	 rsp, 32			; 00000020H
  00039	5f		 pop	 rdi
  0003a	c3		 ret	 0
win32_close_file_func ENDP
_TEXT	ENDS
PUBLIC	win32_seek64_file_func
;	COMDAT pdata
pdata	SEGMENT
$pdata$win32_seek64_file_func DD imagerel $LN13
	DD	imagerel $LN13+129
	DD	imagerel $unwind$win32_seek64_file_func
pdata	ENDS
;	COMDAT xdata
xdata	SEGMENT
$unwind$win32_seek64_file_func DD 040f01H
	DD	06340fH
	DD	0700b320fH
; Function compile flags: /Ogtpy
xdata	ENDS
;	COMDAT win32_seek64_file_func
_TEXT	SEGMENT
opaque$ = 48
stream$ = 56
offset$ = 64
origin$ = 72
win32_seek64_file_func PROC				; COMDAT

; 275  : {

$LN13:
  00000	48 89 5c 24 08	 mov	 QWORD PTR [rsp+8], rbx
  00005	4c 89 44 24 18	 mov	 QWORD PTR [rsp+24], r8
  0000a	57		 push	 rdi
  0000b	48 83 ec 20	 sub	 rsp, 32			; 00000020H

; 276  :     DWORD dwMoveMethod=0xFFFFFFFF;
; 277  :     HANDLE hFile = NULL;

  0000f	33 c9		 xor	 ecx, ecx

; 278  :     long ret=-1;

  00011	83 cb ff	 or	 ebx, -1
  00014	4d 8b d0	 mov	 r10, r8
  00017	48 8b fa	 mov	 rdi, rdx

; 279  : 
; 280  :     if (stream!=NULL)

  0001a	48 85 d2	 test	 rdx, rdx
  0001d	74 03		 je	 SHORT $LN10@win32_seek

; 281  :         hFile = ((WIN32FILE_IOWIN*)stream)->hf;

  0001f	48 8b 0a	 mov	 rcx, QWORD PTR [rdx]
$LN10@win32_seek:

; 282  : 
; 283  :     switch (origin)

  00022	45 85 c9	 test	 r9d, r9d
  00025	74 1a		 je	 SHORT $LN5@win32_seek
  00027	41 ff c9	 dec	 r9d
  0002a	74 0d		 je	 SHORT $LN7@win32_seek
  0002c	41 ff c9	 dec	 r9d

; 293  :             break;
; 294  :         default: return -1;

  0002f	75 43		 jne	 SHORT $LN1@win32_seek

; 288  :         case ZLIB_FILEFUNC_SEEK_END :
; 289  :             dwMoveMethod = FILE_END;

  00031	41 b9 02 00 00
	00		 mov	 r9d, 2

; 290  :             break;

  00037	eb 0b		 jmp	 SHORT $LN8@win32_seek
$LN7@win32_seek:

; 284  :     {
; 285  :         case ZLIB_FILEFUNC_SEEK_CUR :
; 286  :             dwMoveMethod = FILE_CURRENT;

  00039	41 b9 01 00 00
	00		 mov	 r9d, 1

; 287  :             break;

  0003f	eb 03		 jmp	 SHORT $LN8@win32_seek
$LN5@win32_seek:

; 291  :         case ZLIB_FILEFUNC_SEEK_SET :
; 292  :             dwMoveMethod = FILE_BEGIN;

  00041	45 33 c9	 xor	 r9d, r9d
$LN8@win32_seek:

; 295  :     }
; 296  : 
; 297  :     if (hFile)

  00044	48 85 c9	 test	 rcx, rcx
  00047	74 2b		 je	 SHORT $LN1@win32_seek

; 298  :     {
; 299  :         LARGE_INTEGER* li = (LARGE_INTEGER*)&offset;
; 300  :         DWORD dwSet = SetFilePointer(hFile, li->u.LowPart, &li->u.HighPart, dwMoveMethod);

  00049	4c 8d 44 24 44	 lea	 r8, QWORD PTR offset$[rsp+4]
  0004e	41 8b d2	 mov	 edx, r10d
  00051	ff 15 00 00 00
	00		 call	 QWORD PTR __imp_SetFilePointer

; 301  :         if (dwSet == INVALID_SET_FILE_POINTER)

  00057	83 f8 ff	 cmp	 eax, -1			; ffffffffH
  0005a	75 16		 jne	 SHORT $LN2@win32_seek

; 302  :         {
; 303  :             DWORD dwErr = GetLastError();

  0005c	ff 15 00 00 00
	00		 call	 QWORD PTR __imp_GetLastError

; 304  :             ((WIN32FILE_IOWIN*)stream) -> error=(int)dwErr;

  00062	89 47 08	 mov	 DWORD PTR [rdi+8], eax

; 309  :     }
; 310  :     return ret;

  00065	8b c3		 mov	 eax, ebx

; 311  : }

  00067	48 8b 5c 24 30	 mov	 rbx, QWORD PTR [rsp+48]
  0006c	48 83 c4 20	 add	 rsp, 32			; 00000020H
  00070	5f		 pop	 rdi
  00071	c3		 ret	 0
$LN2@win32_seek:

; 305  :             ret = -1;
; 306  :         }
; 307  :         else
; 308  :             ret=0;

  00072	33 db		 xor	 ebx, ebx
$LN1@win32_seek:

; 309  :     }
; 310  :     return ret;

  00074	8b c3		 mov	 eax, ebx

; 311  : }

  00076	48 8b 5c 24 30	 mov	 rbx, QWORD PTR [rsp+48]
  0007b	48 83 c4 20	 add	 rsp, 32			; 00000020H
  0007f	5f		 pop	 rdi
  00080	c3		 ret	 0
win32_seek64_file_func ENDP
_TEXT	ENDS
PUBLIC	win32_seek_file_func
;	COMDAT pdata
pdata	SEGMENT
$pdata$win32_seek_file_func DD imagerel $LN13
	DD	imagerel $LN13+122
	DD	imagerel $unwind$win32_seek_file_func
pdata	ENDS
;	COMDAT xdata
xdata	SEGMENT
$unwind$win32_seek_file_func DD 040a01H
	DD	06340aH
	DD	07006320aH
; Function compile flags: /Ogtpy
xdata	ENDS
;	COMDAT win32_seek_file_func
_TEXT	SEGMENT
opaque$ = 48
stream$ = 56
offset$ = 64
origin$ = 72
win32_seek_file_func PROC				; COMDAT

; 238  : {

$LN13:
  00000	48 89 5c 24 08	 mov	 QWORD PTR [rsp+8], rbx
  00005	57		 push	 rdi
  00006	48 83 ec 20	 sub	 rsp, 32			; 00000020H

; 239  :     DWORD dwMoveMethod=0xFFFFFFFF;
; 240  :     HANDLE hFile = NULL;

  0000a	33 c9		 xor	 ecx, ecx

; 241  : 
; 242  :     long ret=-1;

  0000c	83 cb ff	 or	 ebx, -1
  0000f	45 8b d0	 mov	 r10d, r8d
  00012	48 8b fa	 mov	 rdi, rdx

; 243  :     if (stream!=NULL)

  00015	48 85 d2	 test	 rdx, rdx
  00018	74 03		 je	 SHORT $LN10@win32_seek@2

; 244  :         hFile = ((WIN32FILE_IOWIN*)stream) -> hf;

  0001a	48 8b 0a	 mov	 rcx, QWORD PTR [rdx]
$LN10@win32_seek@2:

; 245  :     switch (origin)

  0001d	45 85 c9	 test	 r9d, r9d
  00020	74 1a		 je	 SHORT $LN5@win32_seek@2
  00022	41 ff c9	 dec	 r9d
  00025	74 0d		 je	 SHORT $LN7@win32_seek@2
  00027	41 ff c9	 dec	 r9d

; 255  :         break;
; 256  :     default: return -1;

  0002a	75 41		 jne	 SHORT $LN1@win32_seek@2

; 250  :     case ZLIB_FILEFUNC_SEEK_END :
; 251  :         dwMoveMethod = FILE_END;

  0002c	41 b9 02 00 00
	00		 mov	 r9d, 2

; 252  :         break;

  00032	eb 0b		 jmp	 SHORT $LN8@win32_seek@2
$LN7@win32_seek@2:

; 246  :     {
; 247  :     case ZLIB_FILEFUNC_SEEK_CUR :
; 248  :         dwMoveMethod = FILE_CURRENT;

  00034	41 b9 01 00 00
	00		 mov	 r9d, 1

; 249  :         break;

  0003a	eb 03		 jmp	 SHORT $LN8@win32_seek@2
$LN5@win32_seek@2:

; 253  :     case ZLIB_FILEFUNC_SEEK_SET :
; 254  :         dwMoveMethod = FILE_BEGIN;

  0003c	45 33 c9	 xor	 r9d, r9d
$LN8@win32_seek@2:

; 257  :     }
; 258  : 
; 259  :     if (hFile != NULL)

  0003f	48 85 c9	 test	 rcx, rcx
  00042	74 29		 je	 SHORT $LN1@win32_seek@2

; 260  :     {
; 261  :         DWORD dwSet = SetFilePointer(hFile, offset, NULL, dwMoveMethod);

  00044	45 33 c0	 xor	 r8d, r8d
  00047	41 8b d2	 mov	 edx, r10d
  0004a	ff 15 00 00 00
	00		 call	 QWORD PTR __imp_SetFilePointer

; 262  :         if (dwSet == INVALID_SET_FILE_POINTER)

  00050	83 f8 ff	 cmp	 eax, -1			; ffffffffH
  00053	75 16		 jne	 SHORT $LN2@win32_seek@2

; 263  :         {
; 264  :             DWORD dwErr = GetLastError();

  00055	ff 15 00 00 00
	00		 call	 QWORD PTR __imp_GetLastError

; 265  :             ((WIN32FILE_IOWIN*)stream) -> error=(int)dwErr;

  0005b	89 47 08	 mov	 DWORD PTR [rdi+8], eax

; 270  :     }
; 271  :     return ret;

  0005e	8b c3		 mov	 eax, ebx

; 272  : }

  00060	48 8b 5c 24 30	 mov	 rbx, QWORD PTR [rsp+48]
  00065	48 83 c4 20	 add	 rsp, 32			; 00000020H
  00069	5f		 pop	 rdi
  0006a	c3		 ret	 0
$LN2@win32_seek@2:

; 266  :             ret = -1;
; 267  :         }
; 268  :         else
; 269  :             ret=0;

  0006b	33 db		 xor	 ebx, ebx
$LN1@win32_seek@2:

; 270  :     }
; 271  :     return ret;

  0006d	8b c3		 mov	 eax, ebx

; 272  : }

  0006f	48 8b 5c 24 30	 mov	 rbx, QWORD PTR [rsp+48]
  00074	48 83 c4 20	 add	 rsp, 32			; 00000020H
  00078	5f		 pop	 rdi
  00079	c3		 ret	 0
win32_seek_file_func ENDP
_TEXT	ENDS
PUBLIC	win32_tell64_file_func
;	COMDAT pdata
pdata	SEGMENT
$pdata$win32_tell64_file_func DD imagerel $LN9
	DD	imagerel $LN9+99
	DD	imagerel $unwind$win32_tell64_file_func
pdata	ENDS
;	COMDAT xdata
xdata	SEGMENT
$unwind$win32_tell64_file_func DD 020601H
	DD	030023206H
; Function compile flags: /Ogtpy
xdata	ENDS
;	COMDAT win32_tell64_file_func
_TEXT	SEGMENT
opaque$ = 48
li$82776 = 56
stream$ = 56
win32_tell64_file_func PROC				; COMDAT

; 213  : {

$LN9:
  00000	40 53		 push	 rbx
  00002	48 83 ec 20	 sub	 rsp, 32			; 00000020H
  00006	48 8b da	 mov	 rbx, rdx

; 214  :     ZPOS64_T ret= (ZPOS64_T)-1;
; 215  :     HANDLE hFile = NULL;
; 216  :     if (stream!=NULL)

  00009	48 85 d2	 test	 rdx, rdx
  0000c	74 40		 je	 SHORT $LN8@win32_tell

; 217  :         hFile = ((WIN32FILE_IOWIN*)stream)->hf;

  0000e	48 8b 0a	 mov	 rcx, QWORD PTR [rdx]

; 218  : 
; 219  :     if (hFile)

  00011	48 85 c9	 test	 rcx, rcx
  00014	74 38		 je	 SHORT $LN8@win32_tell

; 220  :     {
; 221  :         LARGE_INTEGER li;
; 222  :         li.QuadPart = 0;
; 223  :         li.u.LowPart = SetFilePointer(hFile, li.u.LowPart, &li.u.HighPart, FILE_CURRENT);

  00016	4c 8d 44 24 3c	 lea	 r8, QWORD PTR li$82776[rsp+4]
  0001b	41 b9 01 00 00
	00		 mov	 r9d, 1
  00021	33 d2		 xor	 edx, edx
  00023	48 c7 44 24 38
	00 00 00 00	 mov	 QWORD PTR li$82776[rsp], 0
  0002c	ff 15 00 00 00
	00		 call	 QWORD PTR __imp_SetFilePointer
  00032	89 44 24 38	 mov	 DWORD PTR li$82776[rsp], eax

; 224  :         if ( (li.LowPart == 0xFFFFFFFF) && (GetLastError() != NO_ERROR))

  00036	83 f8 ff	 cmp	 eax, -1			; ffffffffH
  00039	75 1d		 jne	 SHORT $LN2@win32_tell
  0003b	ff 15 00 00 00
	00		 call	 QWORD PTR __imp_GetLastError
  00041	85 c0		 test	 eax, eax
  00043	74 13		 je	 SHORT $LN2@win32_tell

; 225  :         {
; 226  :             DWORD dwErr = GetLastError();

  00045	ff 15 00 00 00
	00		 call	 QWORD PTR __imp_GetLastError

; 227  :             ((WIN32FILE_IOWIN*)stream) -> error=(int)dwErr;

  0004b	89 43 08	 mov	 DWORD PTR [rbx+8], eax
$LN8@win32_tell:

; 228  :             ret = (ZPOS64_T)-1;
; 229  :         }
; 230  :         else
; 231  :             ret=li.QuadPart;
; 232  :     }
; 233  :     return ret;

  0004e	48 83 c8 ff	 or	 rax, -1

; 234  : }

  00052	48 83 c4 20	 add	 rsp, 32			; 00000020H
  00056	5b		 pop	 rbx
  00057	c3		 ret	 0
$LN2@win32_tell:

; 228  :             ret = (ZPOS64_T)-1;
; 229  :         }
; 230  :         else
; 231  :             ret=li.QuadPart;
; 232  :     }
; 233  :     return ret;

  00058	48 8b 44 24 38	 mov	 rax, QWORD PTR li$82776[rsp]

; 234  : }

  0005d	48 83 c4 20	 add	 rsp, 32			; 00000020H
  00061	5b		 pop	 rbx
  00062	c3		 ret	 0
win32_tell64_file_func ENDP
_TEXT	ENDS
PUBLIC	win32_tell_file_func
;	COMDAT pdata
pdata	SEGMENT
$pdata$win32_tell_file_func DD imagerel $LN9
	DD	imagerel $LN9+62
	DD	imagerel $unwind$win32_tell_file_func
pdata	ENDS
;	COMDAT xdata
xdata	SEGMENT
$unwind$win32_tell_file_func DD 020601H
	DD	030023206H
; Function compile flags: /Ogtpy
xdata	ENDS
;	COMDAT win32_tell_file_func
_TEXT	SEGMENT
opaque$ = 48
stream$ = 56
win32_tell_file_func PROC				; COMDAT

; 192  : {

$LN9:
  00000	40 53		 push	 rbx
  00002	48 83 ec 20	 sub	 rsp, 32			; 00000020H
  00006	48 8b da	 mov	 rbx, rdx

; 193  :     long ret=-1;
; 194  :     HANDLE hFile = NULL;
; 195  :     if (stream!=NULL)

  00009	48 85 d2	 test	 rdx, rdx
  0000c	74 27		 je	 SHORT $LN8@win32_tell@2

; 196  :         hFile = ((WIN32FILE_IOWIN*)stream) -> hf;

  0000e	48 8b 0a	 mov	 rcx, QWORD PTR [rdx]

; 197  :     if (hFile != NULL)

  00011	48 85 c9	 test	 rcx, rcx
  00014	74 1f		 je	 SHORT $LN8@win32_tell@2

; 198  :     {
; 199  :         DWORD dwSet = SetFilePointer(hFile, 0, NULL, FILE_CURRENT);

  00016	41 b9 01 00 00
	00		 mov	 r9d, 1
  0001c	45 33 c0	 xor	 r8d, r8d
  0001f	33 d2		 xor	 edx, edx
  00021	ff 15 00 00 00
	00		 call	 QWORD PTR __imp_SetFilePointer

; 200  :         if (dwSet == INVALID_SET_FILE_POINTER)

  00027	83 f8 ff	 cmp	 eax, -1			; ffffffffH
  0002a	75 0c		 jne	 SHORT $LN1@win32_tell@2

; 201  :         {
; 202  :             DWORD dwErr = GetLastError();

  0002c	ff 15 00 00 00
	00		 call	 QWORD PTR __imp_GetLastError

; 203  :             ((WIN32FILE_IOWIN*)stream) -> error=(int)dwErr;

  00032	89 43 08	 mov	 DWORD PTR [rbx+8], eax
$LN8@win32_tell@2:

; 204  :             ret = -1;
; 205  :         }
; 206  :         else
; 207  :             ret=(long)dwSet;
; 208  :     }
; 209  :     return ret;

  00035	83 c8 ff	 or	 eax, -1
$LN1@win32_tell@2:

; 210  : }

  00038	48 83 c4 20	 add	 rsp, 32			; 00000020H
  0003c	5b		 pop	 rbx
  0003d	c3		 ret	 0
win32_tell_file_func ENDP
_TEXT	ENDS
PUBLIC	win32_write_file_func
;	COMDAT pdata
pdata	SEGMENT
$pdata$win32_write_file_func DD imagerel $LN10
	DD	imagerel $LN10+107
	DD	imagerel $unwind$win32_write_file_func
pdata	ENDS
;	COMDAT xdata
xdata	SEGMENT
$unwind$win32_write_file_func DD 040a01H
	DD	08340aH
	DD	07006520aH
; Function compile flags: /Ogtpy
xdata	ENDS
;	COMDAT win32_write_file_func
_TEXT	SEGMENT
opaque$ = 64
ret$ = 72
stream$ = 72
buf$ = 80
size$ = 88
win32_write_file_func PROC				; COMDAT

; 171  : {

$LN10:
  00000	48 89 5c 24 08	 mov	 QWORD PTR [rsp+8], rbx
  00005	57		 push	 rdi
  00006	48 83 ec 30	 sub	 rsp, 48			; 00000030H

; 172  :     uLong ret=0;

  0000a	33 ff		 xor	 edi, edi
  0000c	41 8b c1	 mov	 eax, r9d
  0000f	4d 8b d0	 mov	 r10, r8
  00012	48 8b da	 mov	 rbx, rdx
  00015	89 7c 24 48	 mov	 DWORD PTR ret$[rsp], edi

; 173  :     HANDLE hFile = NULL;
; 174  :     if (stream!=NULL)

  00019	48 85 d2	 test	 rdx, rdx
  0001c	74 40		 je	 SHORT $LN9@win32_writ

; 175  :         hFile = ((WIN32FILE_IOWIN*)stream) -> hf;

  0001e	48 8b 0a	 mov	 rcx, QWORD PTR [rdx]

; 176  : 
; 177  :     if (hFile != NULL)

  00021	48 85 c9	 test	 rcx, rcx
  00024	74 38		 je	 SHORT $LN9@win32_writ

; 178  :     {
; 179  :         if (!WriteFile(hFile, buf, size, &ret, NULL))

  00026	4c 8d 4c 24 48	 lea	 r9, QWORD PTR ret$[rsp]
  0002b	44 8b c0	 mov	 r8d, eax
  0002e	49 8b d2	 mov	 rdx, r10
  00031	48 89 7c 24 20	 mov	 QWORD PTR [rsp+32], rdi
  00036	ff 15 00 00 00
	00		 call	 QWORD PTR __imp_WriteFile
  0003c	85 c0		 test	 eax, eax
  0003e	75 0f		 jne	 SHORT $LN7@win32_writ

; 180  :         {
; 181  :             DWORD dwErr = GetLastError();

  00040	ff 15 00 00 00
	00		 call	 QWORD PTR __imp_GetLastError

; 182  :             if (dwErr == ERROR_HANDLE_EOF)

  00046	83 f8 26	 cmp	 eax, 38			; 00000026H
  00049	0f 44 c7	 cmove	 eax, edi

; 183  :                 dwErr = 0;
; 184  :             ((WIN32FILE_IOWIN*)stream) -> error=(int)dwErr;

  0004c	89 43 08	 mov	 DWORD PTR [rbx+8], eax
$LN7@win32_writ:

; 185  :         }
; 186  :     }
; 187  : 
; 188  :     return ret;

  0004f	8b 44 24 48	 mov	 eax, DWORD PTR ret$[rsp]

; 189  : }

  00053	48 8b 5c 24 40	 mov	 rbx, QWORD PTR [rsp+64]
  00058	48 83 c4 30	 add	 rsp, 48			; 00000030H
  0005c	5f		 pop	 rdi
  0005d	c3		 ret	 0
$LN9@win32_writ:

; 185  :         }
; 186  :     }
; 187  : 
; 188  :     return ret;

  0005e	8b c7		 mov	 eax, edi

; 189  : }

  00060	48 8b 5c 24 40	 mov	 rbx, QWORD PTR [rsp+64]
  00065	48 83 c4 30	 add	 rsp, 48			; 00000030H
  00069	5f		 pop	 rdi
  0006a	c3		 ret	 0
win32_write_file_func ENDP
_TEXT	ENDS
PUBLIC	win32_read_file_func
;	COMDAT pdata
pdata	SEGMENT
$pdata$win32_read_file_func DD imagerel $LN10
	DD	imagerel $LN10+107
	DD	imagerel $unwind$win32_read_file_func
pdata	ENDS
;	COMDAT xdata
xdata	SEGMENT
$unwind$win32_read_file_func DD 040a01H
	DD	08340aH
	DD	07006520aH
; Function compile flags: /Ogtpy
xdata	ENDS
;	COMDAT win32_read_file_func
_TEXT	SEGMENT
opaque$ = 64
ret$ = 72
stream$ = 72
buf$ = 80
size$ = 88
win32_read_file_func PROC				; COMDAT

; 149  : {

$LN10:
  00000	48 89 5c 24 08	 mov	 QWORD PTR [rsp+8], rbx
  00005	57		 push	 rdi
  00006	48 83 ec 30	 sub	 rsp, 48			; 00000030H

; 150  :     uLong ret=0;

  0000a	33 ff		 xor	 edi, edi
  0000c	41 8b c1	 mov	 eax, r9d
  0000f	4d 8b d0	 mov	 r10, r8
  00012	48 8b da	 mov	 rbx, rdx
  00015	89 7c 24 48	 mov	 DWORD PTR ret$[rsp], edi

; 151  :     HANDLE hFile = NULL;
; 152  :     if (stream!=NULL)

  00019	48 85 d2	 test	 rdx, rdx
  0001c	74 40		 je	 SHORT $LN9@win32_read

; 153  :         hFile = ((WIN32FILE_IOWIN*)stream) -> hf;

  0001e	48 8b 0a	 mov	 rcx, QWORD PTR [rdx]

; 154  : 
; 155  :     if (hFile != NULL)

  00021	48 85 c9	 test	 rcx, rcx
  00024	74 38		 je	 SHORT $LN9@win32_read

; 156  :     {
; 157  :         if (!ReadFile(hFile, buf, size, &ret, NULL))

  00026	4c 8d 4c 24 48	 lea	 r9, QWORD PTR ret$[rsp]
  0002b	44 8b c0	 mov	 r8d, eax
  0002e	49 8b d2	 mov	 rdx, r10
  00031	48 89 7c 24 20	 mov	 QWORD PTR [rsp+32], rdi
  00036	ff 15 00 00 00
	00		 call	 QWORD PTR __imp_ReadFile
  0003c	85 c0		 test	 eax, eax
  0003e	75 0f		 jne	 SHORT $LN7@win32_read

; 158  :         {
; 159  :             DWORD dwErr = GetLastError();

  00040	ff 15 00 00 00
	00		 call	 QWORD PTR __imp_GetLastError

; 160  :             if (dwErr == ERROR_HANDLE_EOF)

  00046	83 f8 26	 cmp	 eax, 38			; 00000026H
  00049	0f 44 c7	 cmove	 eax, edi

; 161  :                 dwErr = 0;
; 162  :             ((WIN32FILE_IOWIN*)stream) -> error=(int)dwErr;

  0004c	89 43 08	 mov	 DWORD PTR [rbx+8], eax
$LN7@win32_read:

; 163  :         }
; 164  :     }
; 165  : 
; 166  :     return ret;

  0004f	8b 44 24 48	 mov	 eax, DWORD PTR ret$[rsp]

; 167  : }

  00053	48 8b 5c 24 40	 mov	 rbx, QWORD PTR [rsp+64]
  00058	48 83 c4 30	 add	 rsp, 48			; 00000030H
  0005c	5f		 pop	 rdi
  0005d	c3		 ret	 0
$LN9@win32_read:

; 163  :         }
; 164  :     }
; 165  : 
; 166  :     return ret;

  0005e	8b c7		 mov	 eax, edi

; 167  : }

  00060	48 8b 5c 24 40	 mov	 rbx, QWORD PTR [rsp+64]
  00065	48 83 c4 30	 add	 rsp, 48			; 00000030H
  00069	5f		 pop	 rdi
  0006a	c3		 ret	 0
win32_read_file_func ENDP
_TEXT	ENDS
;	COMDAT pdata
pdata	SEGMENT
$pdata$win32_build_iowin DD imagerel win32_build_iowin
	DD	imagerel win32_build_iowin+25
	DD	imagerel $unwind$win32_build_iowin
pdata	ENDS
;	COMDAT pdata
pdata	SEGMENT
$pdata$0$win32_build_iowin DD imagerel win32_build_iowin+25
	DD	imagerel win32_build_iowin+75
	DD	imagerel $chain$0$win32_build_iowin
pdata	ENDS
;	COMDAT pdata
pdata	SEGMENT
$pdata$2$win32_build_iowin DD imagerel win32_build_iowin+75
	DD	imagerel win32_build_iowin+101
	DD	imagerel $chain$2$win32_build_iowin
pdata	ENDS
;	COMDAT pdata
pdata	SEGMENT
$pdata$3$win32_build_iowin DD imagerel win32_build_iowin+101
	DD	imagerel win32_build_iowin+109
	DD	imagerel $chain$3$win32_build_iowin
pdata	ENDS
;	COMDAT xdata
xdata	SEGMENT
$chain$3$win32_build_iowin DD 021H
	DD	imagerel win32_build_iowin
	DD	imagerel win32_build_iowin+25
	DD	imagerel $unwind$win32_build_iowin
xdata	ENDS
;	COMDAT xdata
xdata	SEGMENT
$chain$2$win32_build_iowin DD 020021H
	DD	087400H
	DD	imagerel win32_build_iowin
	DD	imagerel win32_build_iowin+25
	DD	imagerel $unwind$win32_build_iowin
xdata	ENDS
;	COMDAT xdata
xdata	SEGMENT
$chain$0$win32_build_iowin DD 020521H
	DD	087405H
	DD	imagerel win32_build_iowin
	DD	imagerel win32_build_iowin+25
	DD	imagerel $unwind$win32_build_iowin
xdata	ENDS
;	COMDAT xdata
xdata	SEGMENT
$unwind$win32_build_iowin DD 020601H
	DD	030025206H
; Function compile flags: /Ogtpy
xdata	ENDS
;	COMDAT win32_build_iowin
_TEXT	SEGMENT
w32fiow$82605 = 32
hFile$ = 64
win32_build_iowin PROC					; COMDAT

; 70   : {

  00000	40 53		 push	 rbx
  00002	48 83 ec 30	 sub	 rsp, 48			; 00000030H
  00006	48 8b d9	 mov	 rbx, rcx

; 71   :     voidpf ret=NULL;
; 72   : 
; 73   :     if ((hFile != NULL) && (hFile != INVALID_HANDLE_VALUE))

  00009	48 85 c9	 test	 rcx, rcx
  0000c	74 57		 je	 SHORT $LN7@win32_buil
  0000e	48 83 f9 ff	 cmp	 rcx, -1
  00012	74 51		 je	 SHORT $LN7@win32_buil

; 74   :     {
; 75   :         WIN32FILE_IOWIN w32fiow;
; 76   :         w32fiow.hf = hFile;
; 77   :         w32fiow.error = 0;
; 78   :         ret = malloc(sizeof(WIN32FILE_IOWIN));

  00014	b9 10 00 00 00	 mov	 ecx, 16
  00019	48 89 7c 24 40	 mov	 QWORD PTR [rsp+64], rdi
  0001e	c7 44 24 28 00
	00 00 00	 mov	 DWORD PTR w32fiow$82605[rsp+8], 0
  00026	ff 15 00 00 00
	00		 call	 QWORD PTR __imp_malloc
  0002c	48 8b f8	 mov	 rdi, rax

; 79   : 
; 80   :         if (ret==NULL)

  0002f	48 85 c0	 test	 rax, rax
  00032	75 17		 jne	 SHORT $LN2@win32_buil

; 81   :             CloseHandle(hFile);

  00034	48 8b cb	 mov	 rcx, rbx
  00037	ff 15 00 00 00
	00		 call	 QWORD PTR __imp_CloseHandle

; 84   :     }
; 85   :     return ret;

  0003d	48 8b c7	 mov	 rax, rdi
  00040	48 8b 7c 24 40	 mov	 rdi, QWORD PTR [rsp+64]

; 86   : }

  00045	48 83 c4 30	 add	 rsp, 48			; 00000030H
  00049	5b		 pop	 rbx
  0004a	c3		 ret	 0
$LN2@win32_buil:

; 82   :         else
; 83   :             *((WIN32FILE_IOWIN*)ret) = w32fiow;

  0004b	48 89 18	 mov	 QWORD PTR [rax], rbx
  0004e	48 8b 44 24 28	 mov	 rax, QWORD PTR w32fiow$82605[rsp+8]
  00053	48 89 47 08	 mov	 QWORD PTR [rdi+8], rax

; 84   :     }
; 85   :     return ret;

  00057	48 8b c7	 mov	 rax, rdi
  0005a	48 8b 7c 24 40	 mov	 rdi, QWORD PTR [rsp+64]

; 86   : }

  0005f	48 83 c4 30	 add	 rsp, 48			; 00000030H
  00063	5b		 pop	 rbx
  00064	c3		 ret	 0
$LN7@win32_buil:

; 84   :     }
; 85   :     return ret;

  00065	33 c0		 xor	 eax, eax

; 86   : }

  00067	48 83 c4 30	 add	 rsp, 48			; 00000030H
  0006b	5b		 pop	 rbx
  0006c	c3		 ret	 0
win32_build_iowin ENDP
; Function compile flags: /Ogtpy
_TEXT	ENDS
;	COMDAT win32_translate_open_mode
_TEXT	SEGMENT
mode$ = 8
lpdwDesiredAccess$ = 16
lpdwCreationDisposition$ = 24
lpdwShareMode$ = 32
lpdwFlagsAndAttributes$ = 40
win32_translate_open_mode PROC				; COMDAT

; 49   :     *lpdwDesiredAccess = *lpdwShareMode = *lpdwFlagsAndAttributes = *lpdwCreationDisposition = 0;

  00000	48 8b 44 24 28	 mov	 rax, QWORD PTR lpdwFlagsAndAttributes$[rsp]
  00005	45 33 d2	 xor	 r10d, r10d
  00008	44 89 10	 mov	 DWORD PTR [rax], r10d

; 50   : 
; 51   :     if ((mode & ZLIB_FILEFUNC_MODE_READWRITEFILTER)==ZLIB_FILEFUNC_MODE_READ)

  0000b	8b c1		 mov	 eax, ecx
  0000d	45 89 10	 mov	 DWORD PTR [r8], r10d
  00010	24 03		 and	 al, 3
  00012	45 89 11	 mov	 DWORD PTR [r9], r10d
  00015	44 89 12	 mov	 DWORD PTR [rdx], r10d
  00018	3c 01		 cmp	 al, 1
  0001a	75 15		 jne	 SHORT $LN5@win32_tran

; 52   :     {
; 53   :         *lpdwDesiredAccess = GENERIC_READ;

  0001c	c7 02 00 00 00
	80		 mov	 DWORD PTR [rdx], -2147483648 ; 80000000H

; 54   :         *lpdwCreationDisposition = OPEN_EXISTING;

  00022	41 c7 00 03 00
	00 00		 mov	 DWORD PTR [r8], 3

; 55   :         *lpdwShareMode = FILE_SHARE_READ;

  00029	41 c7 01 01 00
	00 00		 mov	 DWORD PTR [r9], 1

; 66   :     }
; 67   : }

  00030	c3		 ret	 0
$LN5@win32_tran:

; 56   :     }
; 57   :     else if (mode & ZLIB_FILEFUNC_MODE_EXISTING)

  00031	f6 c1 04	 test	 cl, 4
  00034	74 0e		 je	 SHORT $LN3@win32_tran

; 58   :     {
; 59   :         *lpdwDesiredAccess = GENERIC_WRITE | GENERIC_READ;
; 60   :         *lpdwCreationDisposition = OPEN_EXISTING;

  00036	41 c7 00 03 00
	00 00		 mov	 DWORD PTR [r8], 3

; 63   :     {
; 64   :         *lpdwDesiredAccess = GENERIC_WRITE | GENERIC_READ;

  0003d	c7 02 00 00 00
	c0		 mov	 DWORD PTR [rdx], -1073741824 ; c0000000H

; 66   :     }
; 67   : }

  00043	c3		 ret	 0
$LN3@win32_tran:

; 61   :     }
; 62   :     else if (mode & ZLIB_FILEFUNC_MODE_CREATE)

  00044	f6 c1 08	 test	 cl, 8
  00047	74 0d		 je	 SHORT $LN1@win32_tran

; 65   :         *lpdwCreationDisposition = CREATE_ALWAYS;

  00049	41 c7 00 02 00
	00 00		 mov	 DWORD PTR [r8], 2
  00050	c7 02 00 00 00
	c0		 mov	 DWORD PTR [rdx], -1073741824 ; c0000000H
$LN1@win32_tran:

; 66   :     }
; 67   : }

  00056	f3 c3		 fatret	 0
win32_translate_open_mode ENDP
PUBLIC	win32_open_file_func
;	COMDAT pdata
pdata	SEGMENT
$pdata$win32_open_file_func DD imagerel $LN4
	DD	imagerel $LN4+114
	DD	imagerel $unwind$win32_open_file_func
pdata	ENDS
;	COMDAT xdata
xdata	SEGMENT
$unwind$win32_open_file_func DD 020601H
	DD	030029206H
; Function compile flags: /Ogtpy
xdata	ENDS
;	COMDAT win32_open_file_func
_TEXT	SEGMENT
dwCreationDisposition$ = 64
dwShareMode$ = 68
opaque$ = 96
dwDesiredAccess$ = 104
filename$ = 104
mode$ = 112
dwFlagsAndAttributes$ = 120
win32_open_file_func PROC				; COMDAT

; 134  : {

$LN4:
  00000	40 53		 push	 rbx
  00002	48 83 ec 50	 sub	 rsp, 80			; 00000050H
  00006	41 8b c0	 mov	 eax, r8d

; 135  :     const char* mode_fopen = NULL;
; 136  :     DWORD dwDesiredAccess,dwCreationDisposition,dwShareMode,dwFlagsAndAttributes ;
; 137  :     HANDLE hFile = NULL;
; 138  : 
; 139  :     win32_translate_open_mode(mode,&dwDesiredAccess,&dwCreationDisposition,&dwShareMode,&dwFlagsAndAttributes);

  00009	48 8d 4c 24 78	 lea	 rcx, QWORD PTR dwFlagsAndAttributes$[rsp]
  0000e	48 8b da	 mov	 rbx, rdx
  00011	4c 8d 4c 24 44	 lea	 r9, QWORD PTR dwShareMode$[rsp]
  00016	4c 8d 44 24 40	 lea	 r8, QWORD PTR dwCreationDisposition$[rsp]
  0001b	48 8d 54 24 68	 lea	 rdx, QWORD PTR dwDesiredAccess$[rsp]
  00020	48 89 4c 24 20	 mov	 QWORD PTR [rsp+32], rcx
  00025	8b c8		 mov	 ecx, eax
  00027	45 33 db	 xor	 r11d, r11d
  0002a	e8 00 00 00 00	 call	 win32_translate_open_mode

; 140  : 
; 141  :     if ((filename!=NULL) && (dwDesiredAccess != 0))

  0002f	48 85 db	 test	 rbx, rbx
  00032	74 31		 je	 SHORT $LN1@win32_open
  00034	8b 54 24 68	 mov	 edx, DWORD PTR dwDesiredAccess$[rsp]
  00038	85 d2		 test	 edx, edx
  0003a	74 29		 je	 SHORT $LN1@win32_open

; 142  :         hFile = CreateFile((LPCTSTR)filename, dwDesiredAccess, dwShareMode, NULL, dwCreationDisposition, dwFlagsAndAttributes, NULL);

  0003c	8b 44 24 78	 mov	 eax, DWORD PTR dwFlagsAndAttributes$[rsp]
  00040	44 8b 44 24 44	 mov	 r8d, DWORD PTR dwShareMode$[rsp]
  00045	4c 89 5c 24 30	 mov	 QWORD PTR [rsp+48], r11
  0004a	89 44 24 28	 mov	 DWORD PTR [rsp+40], eax
  0004e	8b 44 24 40	 mov	 eax, DWORD PTR dwCreationDisposition$[rsp]
  00052	45 33 c9	 xor	 r9d, r9d
  00055	48 8b cb	 mov	 rcx, rbx
  00058	89 44 24 20	 mov	 DWORD PTR [rsp+32], eax
  0005c	ff 15 00 00 00
	00		 call	 QWORD PTR __imp_CreateFileA
  00062	4c 8b d8	 mov	 r11, rax
$LN1@win32_open:

; 143  : 
; 144  :     return win32_build_iowin(hFile);

  00065	49 8b cb	 mov	 rcx, r11

; 145  : }

  00068	48 83 c4 50	 add	 rsp, 80			; 00000050H
  0006c	5b		 pop	 rbx
  0006d	e9 00 00 00 00	 jmp	 win32_build_iowin
win32_open_file_func ENDP
_TEXT	ENDS
PUBLIC	win32_open64_file_funcW
;	COMDAT pdata
pdata	SEGMENT
$pdata$win32_open64_file_funcW DD imagerel $LN4
	DD	imagerel $LN4+114
	DD	imagerel $unwind$win32_open64_file_funcW
pdata	ENDS
;	COMDAT xdata
xdata	SEGMENT
$unwind$win32_open64_file_funcW DD 020601H
	DD	030029206H
; Function compile flags: /Ogtpy
xdata	ENDS
;	COMDAT win32_open64_file_funcW
_TEXT	SEGMENT
dwCreationDisposition$ = 64
dwShareMode$ = 68
opaque$ = 96
dwDesiredAccess$ = 104
filename$ = 104
mode$ = 112
dwFlagsAndAttributes$ = 120
win32_open64_file_funcW PROC				; COMDAT

; 119  : {

$LN4:
  00000	40 53		 push	 rbx
  00002	48 83 ec 50	 sub	 rsp, 80			; 00000050H
  00006	41 8b c0	 mov	 eax, r8d

; 120  :     const char* mode_fopen = NULL;
; 121  :     DWORD dwDesiredAccess,dwCreationDisposition,dwShareMode,dwFlagsAndAttributes ;
; 122  :     HANDLE hFile = NULL;
; 123  : 
; 124  :     win32_translate_open_mode(mode,&dwDesiredAccess,&dwCreationDisposition,&dwShareMode,&dwFlagsAndAttributes);

  00009	48 8d 4c 24 78	 lea	 rcx, QWORD PTR dwFlagsAndAttributes$[rsp]
  0000e	48 8b da	 mov	 rbx, rdx
  00011	4c 8d 4c 24 44	 lea	 r9, QWORD PTR dwShareMode$[rsp]
  00016	4c 8d 44 24 40	 lea	 r8, QWORD PTR dwCreationDisposition$[rsp]
  0001b	48 8d 54 24 68	 lea	 rdx, QWORD PTR dwDesiredAccess$[rsp]
  00020	48 89 4c 24 20	 mov	 QWORD PTR [rsp+32], rcx
  00025	8b c8		 mov	 ecx, eax
  00027	45 33 db	 xor	 r11d, r11d
  0002a	e8 00 00 00 00	 call	 win32_translate_open_mode

; 125  : 
; 126  :     if ((filename!=NULL) && (dwDesiredAccess != 0))

  0002f	48 85 db	 test	 rbx, rbx
  00032	74 31		 je	 SHORT $LN1@win32_open@2
  00034	8b 54 24 68	 mov	 edx, DWORD PTR dwDesiredAccess$[rsp]
  00038	85 d2		 test	 edx, edx
  0003a	74 29		 je	 SHORT $LN1@win32_open@2

; 127  :         hFile = CreateFileW((LPCWSTR)filename, dwDesiredAccess, dwShareMode, NULL, dwCreationDisposition, dwFlagsAndAttributes, NULL);

  0003c	8b 44 24 78	 mov	 eax, DWORD PTR dwFlagsAndAttributes$[rsp]
  00040	44 8b 44 24 44	 mov	 r8d, DWORD PTR dwShareMode$[rsp]
  00045	4c 89 5c 24 30	 mov	 QWORD PTR [rsp+48], r11
  0004a	89 44 24 28	 mov	 DWORD PTR [rsp+40], eax
  0004e	8b 44 24 40	 mov	 eax, DWORD PTR dwCreationDisposition$[rsp]
  00052	45 33 c9	 xor	 r9d, r9d
  00055	48 8b cb	 mov	 rcx, rbx
  00058	89 44 24 20	 mov	 DWORD PTR [rsp+32], eax
  0005c	ff 15 00 00 00
	00		 call	 QWORD PTR __imp_CreateFileW
  00062	4c 8b d8	 mov	 r11, rax
$LN1@win32_open@2:

; 128  : 
; 129  :     return win32_build_iowin(hFile);

  00065	49 8b cb	 mov	 rcx, r11

; 130  : }

  00068	48 83 c4 50	 add	 rsp, 80			; 00000050H
  0006c	5b		 pop	 rbx
  0006d	e9 00 00 00 00	 jmp	 win32_build_iowin
win32_open64_file_funcW ENDP
_TEXT	ENDS
PUBLIC	win32_open64_file_funcA
;	COMDAT pdata
pdata	SEGMENT
$pdata$win32_open64_file_funcA DD imagerel $LN4
	DD	imagerel $LN4+114
	DD	imagerel $unwind$win32_open64_file_funcA
pdata	ENDS
;	COMDAT xdata
xdata	SEGMENT
$unwind$win32_open64_file_funcA DD 020601H
	DD	030029206H
; Function compile flags: /Ogtpy
xdata	ENDS
;	COMDAT win32_open64_file_funcA
_TEXT	SEGMENT
dwCreationDisposition$ = 64
dwShareMode$ = 68
opaque$ = 96
dwDesiredAccess$ = 104
filename$ = 104
mode$ = 112
dwFlagsAndAttributes$ = 120
win32_open64_file_funcA PROC				; COMDAT

; 104  : {

$LN4:
  00000	40 53		 push	 rbx
  00002	48 83 ec 50	 sub	 rsp, 80			; 00000050H
  00006	41 8b c0	 mov	 eax, r8d

; 105  :     const char* mode_fopen = NULL;
; 106  :     DWORD dwDesiredAccess,dwCreationDisposition,dwShareMode,dwFlagsAndAttributes ;
; 107  :     HANDLE hFile = NULL;
; 108  : 
; 109  :     win32_translate_open_mode(mode,&dwDesiredAccess,&dwCreationDisposition,&dwShareMode,&dwFlagsAndAttributes);

  00009	48 8d 4c 24 78	 lea	 rcx, QWORD PTR dwFlagsAndAttributes$[rsp]
  0000e	48 8b da	 mov	 rbx, rdx
  00011	4c 8d 4c 24 44	 lea	 r9, QWORD PTR dwShareMode$[rsp]
  00016	4c 8d 44 24 40	 lea	 r8, QWORD PTR dwCreationDisposition$[rsp]
  0001b	48 8d 54 24 68	 lea	 rdx, QWORD PTR dwDesiredAccess$[rsp]
  00020	48 89 4c 24 20	 mov	 QWORD PTR [rsp+32], rcx
  00025	8b c8		 mov	 ecx, eax
  00027	45 33 db	 xor	 r11d, r11d
  0002a	e8 00 00 00 00	 call	 win32_translate_open_mode

; 110  : 
; 111  :     if ((filename!=NULL) && (dwDesiredAccess != 0))

  0002f	48 85 db	 test	 rbx, rbx
  00032	74 31		 je	 SHORT $LN1@win32_open@3
  00034	8b 54 24 68	 mov	 edx, DWORD PTR dwDesiredAccess$[rsp]
  00038	85 d2		 test	 edx, edx
  0003a	74 29		 je	 SHORT $LN1@win32_open@3

; 112  :         hFile = CreateFileA((LPCSTR)filename, dwDesiredAccess, dwShareMode, NULL, dwCreationDisposition, dwFlagsAndAttributes, NULL);

  0003c	8b 44 24 78	 mov	 eax, DWORD PTR dwFlagsAndAttributes$[rsp]
  00040	44 8b 44 24 44	 mov	 r8d, DWORD PTR dwShareMode$[rsp]
  00045	4c 89 5c 24 30	 mov	 QWORD PTR [rsp+48], r11
  0004a	89 44 24 28	 mov	 DWORD PTR [rsp+40], eax
  0004e	8b 44 24 40	 mov	 eax, DWORD PTR dwCreationDisposition$[rsp]
  00052	45 33 c9	 xor	 r9d, r9d
  00055	48 8b cb	 mov	 rcx, rbx
  00058	89 44 24 20	 mov	 DWORD PTR [rsp+32], eax
  0005c	ff 15 00 00 00
	00		 call	 QWORD PTR __imp_CreateFileA
  00062	4c 8b d8	 mov	 r11, rax
$LN1@win32_open@3:

; 113  : 
; 114  :     return win32_build_iowin(hFile);

  00065	49 8b cb	 mov	 rcx, r11

; 115  : }

  00068	48 83 c4 50	 add	 rsp, 80			; 00000050H
  0006c	5b		 pop	 rbx
  0006d	e9 00 00 00 00	 jmp	 win32_build_iowin
win32_open64_file_funcA ENDP
_TEXT	ENDS
PUBLIC	win32_open64_file_func
;	COMDAT pdata
pdata	SEGMENT
$pdata$win32_open64_file_func DD imagerel $LN4
	DD	imagerel $LN4+114
	DD	imagerel $unwind$win32_open64_file_func
pdata	ENDS
;	COMDAT xdata
xdata	SEGMENT
$unwind$win32_open64_file_func DD 020601H
	DD	030029206H
; Function compile flags: /Ogtpy
xdata	ENDS
;	COMDAT win32_open64_file_func
_TEXT	SEGMENT
dwCreationDisposition$ = 64
dwShareMode$ = 68
opaque$ = 96
dwDesiredAccess$ = 104
filename$ = 104
mode$ = 112
dwFlagsAndAttributes$ = 120
win32_open64_file_func PROC				; COMDAT

; 89   : {

$LN4:
  00000	40 53		 push	 rbx
  00002	48 83 ec 50	 sub	 rsp, 80			; 00000050H
  00006	41 8b c0	 mov	 eax, r8d

; 90   :     const char* mode_fopen = NULL;
; 91   :     DWORD dwDesiredAccess,dwCreationDisposition,dwShareMode,dwFlagsAndAttributes ;
; 92   :     HANDLE hFile = NULL;
; 93   : 
; 94   :     win32_translate_open_mode(mode,&dwDesiredAccess,&dwCreationDisposition,&dwShareMode,&dwFlagsAndAttributes);

  00009	48 8d 4c 24 78	 lea	 rcx, QWORD PTR dwFlagsAndAttributes$[rsp]
  0000e	48 8b da	 mov	 rbx, rdx
  00011	4c 8d 4c 24 44	 lea	 r9, QWORD PTR dwShareMode$[rsp]
  00016	4c 8d 44 24 40	 lea	 r8, QWORD PTR dwCreationDisposition$[rsp]
  0001b	48 8d 54 24 68	 lea	 rdx, QWORD PTR dwDesiredAccess$[rsp]
  00020	48 89 4c 24 20	 mov	 QWORD PTR [rsp+32], rcx
  00025	8b c8		 mov	 ecx, eax
  00027	45 33 db	 xor	 r11d, r11d
  0002a	e8 00 00 00 00	 call	 win32_translate_open_mode

; 95   : 
; 96   :     if ((filename!=NULL) && (dwDesiredAccess != 0))

  0002f	48 85 db	 test	 rbx, rbx
  00032	74 31		 je	 SHORT $LN1@win32_open@4
  00034	8b 54 24 68	 mov	 edx, DWORD PTR dwDesiredAccess$[rsp]
  00038	85 d2		 test	 edx, edx
  0003a	74 29		 je	 SHORT $LN1@win32_open@4

; 97   :         hFile = CreateFile((LPCTSTR)filename, dwDesiredAccess, dwShareMode, NULL, dwCreationDisposition, dwFlagsAndAttributes, NULL);

  0003c	8b 44 24 78	 mov	 eax, DWORD PTR dwFlagsAndAttributes$[rsp]
  00040	44 8b 44 24 44	 mov	 r8d, DWORD PTR dwShareMode$[rsp]
  00045	4c 89 5c 24 30	 mov	 QWORD PTR [rsp+48], r11
  0004a	89 44 24 28	 mov	 DWORD PTR [rsp+40], eax
  0004e	8b 44 24 40	 mov	 eax, DWORD PTR dwCreationDisposition$[rsp]
  00052	45 33 c9	 xor	 r9d, r9d
  00055	48 8b cb	 mov	 rcx, rbx
  00058	89 44 24 20	 mov	 DWORD PTR [rsp+32], eax
  0005c	ff 15 00 00 00
	00		 call	 QWORD PTR __imp_CreateFileA
  00062	4c 8b d8	 mov	 r11, rax
$LN1@win32_open@4:

; 98   : 
; 99   :     return win32_build_iowin(hFile);

  00065	49 8b cb	 mov	 rcx, r11

; 100  : }

  00068	48 83 c4 50	 add	 rsp, 80			; 00000050H
  0006c	5b		 pop	 rbx
  0006d	e9 00 00 00 00	 jmp	 win32_build_iowin
win32_open64_file_func ENDP
PUBLIC	fill_win32_filefunc64W
; Function compile flags: /Ogtpy
;	COMDAT fill_win32_filefunc64W
_TEXT	SEGMENT
pzlib_filefunc_def$ = 8
fill_win32_filefunc64W PROC				; COMDAT

; 381  :     pzlib_filefunc_def->zopen64_file = win32_open64_file_funcW;

  00000	48 8d 05 00 00
	00 00		 lea	 rax, OFFSET FLAT:win32_open64_file_funcW

; 382  :     pzlib_filefunc_def->zread_file = win32_read_file_func;
; 383  :     pzlib_filefunc_def->zwrite_file = win32_write_file_func;
; 384  :     pzlib_filefunc_def->ztell64_file = win32_tell64_file_func;
; 385  :     pzlib_filefunc_def->zseek64_file = win32_seek64_file_func;
; 386  :     pzlib_filefunc_def->zclose_file = win32_close_file_func;
; 387  :     pzlib_filefunc_def->zerror_file = win32_error_file_func;
; 388  :     pzlib_filefunc_def->opaque = NULL;

  00007	48 c7 41 38 00
	00 00 00	 mov	 QWORD PTR [rcx+56], 0
  0000f	48 89 01	 mov	 QWORD PTR [rcx], rax
  00012	48 8d 05 00 00
	00 00		 lea	 rax, OFFSET FLAT:win32_read_file_func
  00019	48 89 41 08	 mov	 QWORD PTR [rcx+8], rax
  0001d	48 8d 05 00 00
	00 00		 lea	 rax, OFFSET FLAT:win32_write_file_func
  00024	48 89 41 10	 mov	 QWORD PTR [rcx+16], rax
  00028	48 8d 05 00 00
	00 00		 lea	 rax, OFFSET FLAT:win32_tell64_file_func
  0002f	48 89 41 18	 mov	 QWORD PTR [rcx+24], rax
  00033	48 8d 05 00 00
	00 00		 lea	 rax, OFFSET FLAT:win32_seek64_file_func
  0003a	48 89 41 20	 mov	 QWORD PTR [rcx+32], rax
  0003e	48 8d 05 00 00
	00 00		 lea	 rax, OFFSET FLAT:win32_close_file_func
  00045	48 89 41 28	 mov	 QWORD PTR [rcx+40], rax
  00049	48 8d 05 00 00
	00 00		 lea	 rax, OFFSET FLAT:win32_error_file_func
  00050	48 89 41 30	 mov	 QWORD PTR [rcx+48], rax

; 389  : }

  00054	c3		 ret	 0
fill_win32_filefunc64W ENDP
_TEXT	ENDS
PUBLIC	fill_win32_filefunc64A
; Function compile flags: /Ogtpy
;	COMDAT fill_win32_filefunc64A
_TEXT	SEGMENT
pzlib_filefunc_def$ = 8
fill_win32_filefunc64A PROC				; COMDAT

; 368  :     pzlib_filefunc_def->zopen64_file = win32_open64_file_funcA;

  00000	48 8d 05 00 00
	00 00		 lea	 rax, OFFSET FLAT:win32_open64_file_funcA

; 369  :     pzlib_filefunc_def->zread_file = win32_read_file_func;
; 370  :     pzlib_filefunc_def->zwrite_file = win32_write_file_func;
; 371  :     pzlib_filefunc_def->ztell64_file = win32_tell64_file_func;
; 372  :     pzlib_filefunc_def->zseek64_file = win32_seek64_file_func;
; 373  :     pzlib_filefunc_def->zclose_file = win32_close_file_func;
; 374  :     pzlib_filefunc_def->zerror_file = win32_error_file_func;
; 375  :     pzlib_filefunc_def->opaque = NULL;

  00007	48 c7 41 38 00
	00 00 00	 mov	 QWORD PTR [rcx+56], 0
  0000f	48 89 01	 mov	 QWORD PTR [rcx], rax
  00012	48 8d 05 00 00
	00 00		 lea	 rax, OFFSET FLAT:win32_read_file_func
  00019	48 89 41 08	 mov	 QWORD PTR [rcx+8], rax
  0001d	48 8d 05 00 00
	00 00		 lea	 rax, OFFSET FLAT:win32_write_file_func
  00024	48 89 41 10	 mov	 QWORD PTR [rcx+16], rax
  00028	48 8d 05 00 00
	00 00		 lea	 rax, OFFSET FLAT:win32_tell64_file_func
  0002f	48 89 41 18	 mov	 QWORD PTR [rcx+24], rax
  00033	48 8d 05 00 00
	00 00		 lea	 rax, OFFSET FLAT:win32_seek64_file_func
  0003a	48 89 41 20	 mov	 QWORD PTR [rcx+32], rax
  0003e	48 8d 05 00 00
	00 00		 lea	 rax, OFFSET FLAT:win32_close_file_func
  00045	48 89 41 28	 mov	 QWORD PTR [rcx+40], rax
  00049	48 8d 05 00 00
	00 00		 lea	 rax, OFFSET FLAT:win32_error_file_func
  00050	48 89 41 30	 mov	 QWORD PTR [rcx+48], rax

; 376  : }

  00054	c3		 ret	 0
fill_win32_filefunc64A ENDP
_TEXT	ENDS
PUBLIC	fill_win32_filefunc64
; Function compile flags: /Ogtpy
;	COMDAT fill_win32_filefunc64
_TEXT	SEGMENT
pzlib_filefunc_def$ = 8
fill_win32_filefunc64 PROC				; COMDAT

; 355  :     pzlib_filefunc_def->zopen64_file = win32_open64_file_func;

  00000	48 8d 05 00 00
	00 00		 lea	 rax, OFFSET FLAT:win32_open64_file_func

; 356  :     pzlib_filefunc_def->zread_file = win32_read_file_func;
; 357  :     pzlib_filefunc_def->zwrite_file = win32_write_file_func;
; 358  :     pzlib_filefunc_def->ztell64_file = win32_tell64_file_func;
; 359  :     pzlib_filefunc_def->zseek64_file = win32_seek64_file_func;
; 360  :     pzlib_filefunc_def->zclose_file = win32_close_file_func;
; 361  :     pzlib_filefunc_def->zerror_file = win32_error_file_func;
; 362  :     pzlib_filefunc_def->opaque = NULL;

  00007	48 c7 41 38 00
	00 00 00	 mov	 QWORD PTR [rcx+56], 0
  0000f	48 89 01	 mov	 QWORD PTR [rcx], rax
  00012	48 8d 05 00 00
	00 00		 lea	 rax, OFFSET FLAT:win32_read_file_func
  00019	48 89 41 08	 mov	 QWORD PTR [rcx+8], rax
  0001d	48 8d 05 00 00
	00 00		 lea	 rax, OFFSET FLAT:win32_write_file_func
  00024	48 89 41 10	 mov	 QWORD PTR [rcx+16], rax
  00028	48 8d 05 00 00
	00 00		 lea	 rax, OFFSET FLAT:win32_tell64_file_func
  0002f	48 89 41 18	 mov	 QWORD PTR [rcx+24], rax
  00033	48 8d 05 00 00
	00 00		 lea	 rax, OFFSET FLAT:win32_seek64_file_func
  0003a	48 89 41 20	 mov	 QWORD PTR [rcx+32], rax
  0003e	48 8d 05 00 00
	00 00		 lea	 rax, OFFSET FLAT:win32_close_file_func
  00045	48 89 41 28	 mov	 QWORD PTR [rcx+40], rax
  00049	48 8d 05 00 00
	00 00		 lea	 rax, OFFSET FLAT:win32_error_file_func
  00050	48 89 41 30	 mov	 QWORD PTR [rcx+48], rax

; 363  : }

  00054	c3		 ret	 0
fill_win32_filefunc64 ENDP
_TEXT	ENDS
PUBLIC	fill_win32_filefunc
; Function compile flags: /Ogtpy
;	COMDAT fill_win32_filefunc
_TEXT	SEGMENT
pzlib_filefunc_def$ = 8
fill_win32_filefunc PROC				; COMDAT

; 343  :     pzlib_filefunc_def->zopen_file = win32_open_file_func;

  00000	48 8d 05 00 00
	00 00		 lea	 rax, OFFSET FLAT:win32_open_file_func

; 344  :     pzlib_filefunc_def->zread_file = win32_read_file_func;
; 345  :     pzlib_filefunc_def->zwrite_file = win32_write_file_func;
; 346  :     pzlib_filefunc_def->ztell_file = win32_tell_file_func;
; 347  :     pzlib_filefunc_def->zseek_file = win32_seek_file_func;
; 348  :     pzlib_filefunc_def->zclose_file = win32_close_file_func;
; 349  :     pzlib_filefunc_def->zerror_file = win32_error_file_func;
; 350  :     pzlib_filefunc_def->opaque = NULL;

  00007	48 c7 41 38 00
	00 00 00	 mov	 QWORD PTR [rcx+56], 0
  0000f	48 89 01	 mov	 QWORD PTR [rcx], rax
  00012	48 8d 05 00 00
	00 00		 lea	 rax, OFFSET FLAT:win32_read_file_func
  00019	48 89 41 08	 mov	 QWORD PTR [rcx+8], rax
  0001d	48 8d 05 00 00
	00 00		 lea	 rax, OFFSET FLAT:win32_write_file_func
  00024	48 89 41 10	 mov	 QWORD PTR [rcx+16], rax
  00028	48 8d 05 00 00
	00 00		 lea	 rax, OFFSET FLAT:win32_tell_file_func
  0002f	48 89 41 18	 mov	 QWORD PTR [rcx+24], rax
  00033	48 8d 05 00 00
	00 00		 lea	 rax, OFFSET FLAT:win32_seek_file_func
  0003a	48 89 41 20	 mov	 QWORD PTR [rcx+32], rax
  0003e	48 8d 05 00 00
	00 00		 lea	 rax, OFFSET FLAT:win32_close_file_func
  00045	48 89 41 28	 mov	 QWORD PTR [rcx+40], rax
  00049	48 8d 05 00 00
	00 00		 lea	 rax, OFFSET FLAT:win32_error_file_func
  00050	48 89 41 30	 mov	 QWORD PTR [rcx+48], rax

; 351  : }

  00054	c3		 ret	 0
fill_win32_filefunc ENDP
END
